(iann
ANN
p0
(dp1
S'layers'
p2
(lp3
(iann
Layer
p4
(dp5
S'weight'
p6
(lp7
(lp8
F0.10898468332027472
aF0.03898202331024775
aF0.16050775330136707
aF-0.07297784859979337
aF-0.00028982730300733395
aF0.058472946871305
aF0.034085974912122646
aF0.032790679615192
aF0.19751974287251917
aF-0.11606198811808621
aF0.053123603839026035
aF-0.19364588618581988
aF-0.11142116033678891
aF-0.003631170833620523
aF-0.17798564674086267
aF0.02205089442228539
aF0.1393579186221391
aF-0.14211005747748026
aF-0.03350476077479847
aF0.18314808661080678
aF-0.10032131680588204
aF-0.08074954990990922
aF-0.13537116928389908
aF-0.16409010021127213
aF-0.06346315774229735
aF0.14254136312243187
aF0.060737547521163227
aF0.009309777105247719
aF-0.018428391443952474
aF-0.07315555720592068
aF-0.19063101757913486
aF0.013454555017363423
aF0.03080816737243733
aF0.11935641435178862
aF-0.17696957403986296
aF-0.07809200718208219
aF-0.018987780306450708
aF-0.06405304662685349
aF0.048091366210193665
aF0.1969076664075794
aF-0.14790282422846968
aF-0.049407747025332016
aF-0.15339632851683505
aF-0.12317222762496494
aF-0.05127346775022831
aF0.010290208523349303
aF-0.15487753635684412
aF0.1644108191971062
aF-0.0011217750203678933
aF0.09512142830788661
aF0.10084537245789832
aF-0.11480332006391199
aF-0.09100057865689891
aF0.15435101257603712
aF0.11023190407114897
aF0.011131575498649016
aF-0.07712664818292336
aF-0.03439438288261254
aF0.026361383034009783
aF-0.03645219069449013
aF0.08449221422724429
aF-0.06929268205228253
aF-0.05430514250608792
aF0.0010592849986124087
aasS'output'
p9
(lp10
I1
aF0.0
aF0.0
aF0.125
aF1.0
aF0.8125
aF0.0
aF0.0
aF0.0
aF0.0
aF0.0
aF0.25
aF1.0
aF0.9375
aF0.0
aF0.0
aF0.0
aF0.0
aF0.0
aF0.25
aF1.0
aF0.75
aF0.0
aF0.0
aF0.0
aF0.0
aF0.0
aF0.4375
aF1.0
aF0.625
aF0.0
aF0.0
aF0.0
aF0.0
aF0.0
aF0.3125
aF1.0
aF0.5625
aF0.0
aF0.0
aF0.0
aF0.0
aF0.0
aF0.4375
aF1.0
aF0.4375
aF0.0
aF0.0
aF0.0
aF0.0
aF0.0
aF0.1875
aF1.0
aF0.5625
aF0.0
aF0.0
aF0.0
aF0.0
aF0.0
aF0.0625
aF0.75
aF0.9375
aF0.0
aF0.0
aF0.0
asS'n_neurons'
p11
I64
sS'error'
p12
(lp13
F-0.0001528566969314362
aF-0.0028434865355350973
aF-0.008786616954538863
aF-0.009472053687834199
aF-0.04166987797895267
aF0.014028418442585403
aF-0.007758433778860924
aF-0.003232625080374441
aF-0.0001244291879427029
aF-0.015517286847737047
aF-0.04127797554545394
aF-0.008290336900368303
aF0.005987641629201778
aF0.005520556015768131
aF-0.008152990384825231
aF0.00034690538070131997
aF0.004099731127916711
aF0.001462144131062753
aF-0.007471399719304215
aF0.06102681564198005
aF0.06562600469979904
aF0.008515349086258332
aF-0.005112841247724115
aF-0.0026129346586787235
aF0.00040558439166547383
aF0.004599644426557736
aF0.00915016451093066
aF0.05184414266758823
aF0.030859704263779764
aF0.009873400299909789
aF-0.009275596333487693
aF0.0004215841131987003
aF0.003316686262234015
aF-0.013879412146717233
aF-0.016706750653316945
aF0.008916853539536047
aF0.012319356921989343
aF-0.015566739850354748
aF-0.03204412676175008
aF-0.005473334355995451
aF0.003318062892972466
aF-0.011222565760525487
aF-0.0365727525141365
aF0.011306899637634035
aF0.02807781445527826
aF-0.028851011966524
aF-0.03231793881751634
aF-0.0018900193877062345
aF-0.005496649170252469
aF-0.00814755223085081
aF-0.017358092268852238
aF0.00588562092279443
aF0.019420628678503266
aF-0.0029669529776362017
aF-0.010113351905027126
aF0.0074223594764309155
aF0.0029614382501338718
aF-0.0015290457943179308
aF-0.021776165322018298
aF-0.01124332185329494
aF0.010966665355717976
aF0.03405533099582739
aF0.015533209963315593
aF0.022972862491092347
asS'input'
p14
(lp15
I0
aI0
aI0
aI0
aI0
aI0
aI0
aI0
aI0
aI0
aI0
aI0
aI0
aI0
aI0
aI0
aI0
aI0
aI0
aI0
aI0
aI0
aI0
aI0
aI0
aI0
aI0
aI0
aI0
aI0
aI0
aI0
aI0
aI0
aI0
aI0
aI0
aI0
aI0
aI0
aI0
aI0
aI0
aI0
aI0
aI0
aI0
aI0
aI0
aI0
aI0
aI0
aI0
aI0
aI0
aI0
aI0
aI0
aI0
aI0
aI0
aI0
aI0
aI0
asS'id'
p16
I0
sS'bias_val'
p17
I1
sba(iann
Layer
p18
(dp19
g6
(lp20
(lp21
F-0.032834970788071294
aF-0.10013278156175057
aF-0.1639025530471935
aF0.18949629591644604
aF0.17735787858165328
aF-0.04872851020684144
aF0.03259256407288014
aF0.044722372266359625
aF-0.18449423766482553
aF-0.040473256076169244
aF0.0013437704616204261
aF0.05823525404801905
aF0.25444661670428625
aF0.08004136017704123
aF0.11563118848528506
aF-0.30731364181900794
aF0.10226669753797397
aF-0.10131357669643141
aF0.11725468209767292
aF-0.19921718722324547
aF-0.08213431911761832
aF0.0433160926626914
aF0.17207220823148386
aF0.06786539258159593
aF-0.17133775408307056
aF0.11639941318461683
aF0.07726027881578713
aF0.15596072441755818
aF-0.1704145116716659
aF-0.2140837419883662
aF0.2706396224056906
aF0.17267770509936017
aF0.20238945836571937
aF-0.064723927058331
aF-0.09536945360987255
aF0.061382737814534336
aF-0.04496465396596244
aF-0.16743922935914904
aF-0.17309801529354846
aF0.025901812927100237
aF0.05065992344708423
aF0.036751518230773016
aF0.14217301171914706
aF0.036620019417844485
aF0.002288396652967586
aF-0.08993169482571635
aF-0.05525572000893905
aF-0.1689917444882541
aF0.06717607703522846
aF-0.058141267288998336
aF0.077975516119313
aF0.2008347671230505
aF0.092020504113404
aF0.1266244385082817
aF0.16907504137248905
aF0.07950721128225115
aF-0.22434666250489618
aF0.09141571839525889
aF-0.13604893094671044
aF-0.00391224872993402
aF0.17181584804956804
aF0.016962339491214947
aF0.07307173441589347
aF0.18054719023841617
aF-0.028048470375922816
aF-0.20651385105868775
aF0.10954799926693244
aF0.21108071538789563
aF-0.22812240489790936
aF0.07663869995000436
aF0.12021291031643347
aF0.06126771584650004
aF0.07198976693937852
aF0.07272362639753369
aF-0.07468463406367984
aF-0.26519350651894685
aF-0.0010531607676803666
aF-0.18201857895611406
aF0.04853470623640781
aF-0.06054289101374455
aF0.09217844032615805
aF0.18305885003105044
aF0.03659873875722567
aF-0.12902097779450267
aF-0.0022212213746359314
aF-0.011070289750351637
aF0.034933816157515965
aF0.07054807243570893
aF0.26189502175858753
aF-0.22116705157684094
aF0.13132869053284033
aF-0.02733922142409038
aF-0.02352031714002427
aF-0.21279231012854244
aF0.12273674184342909
aF0.10211407178144791
aF-0.01576400008969578
aF-0.2898912064537422
aF-0.11804924487086045
aF0.04799907724578007
aa(lp22
F-0.08267723277328037
aF-0.19957310796264213
aF0.025848589582963377
aF-0.1451011330230809
aF0.09448073822693465
aF-0.14208265452237678
aF-0.15365969853472494
aF0.085369806950362
aF-0.19850002463228913
aF0.04144598830790999
aF-0.009230920983105712
aF0.12753406429026753
aF-0.1502325154508072
aF0.13470086145936683
aF-0.16487442541409614
aF0.030625740277805097
aF0.09361557522360614
aF-0.08696754022043703
aF0.0400055237424187
aF0.008738247844485209
aF-0.06917951540211723
aF-0.009938321297366881
aF0.19711832381337757
aF0.0006264826154008252
aF0.18750619508674565
aF0.141589919907179
aF0.1222827207397732
aF-0.03915859843965311
aF0.1832807473963894
aF-0.06909551713160475
aF0.01101989143759008
aF0.18332462684750167
aF0.14052896494750594
aF0.13326608579709764
aF-0.103643730381429
aF-0.14401960328376628
aF0.15669013640200768
aF-0.07924433765999664
aF0.030836550180821265
aF0.1951771140590463
aF0.1354678254598109
aF0.1719062093065057
aF-0.17718753565079917
aF-0.1381722178079386
aF-0.0444576085240162
aF-0.1675074953354106
aF0.03728504432456209
aF0.16329644837383694
aF0.10844181226514776
aF-0.09605016272855137
aF-0.05016316815652894
aF-0.15904505870277896
aF-0.041442624161179026
aF-0.09118206703287371
aF0.04011037275516466
aF-0.059759566744839704
aF0.07751902495365615
aF0.16460890269881223
aF0.02300783264269199
aF-0.08193459426631794
aF0.19777058747069692
aF0.11706149277166744
aF0.14371900973040797
aF0.11722413894876876
aF-0.15562116634400744
aF-0.12001833352317398
aF-0.09297482550425995
aF-0.037453047179128784
aF-0.08393991768320626
aF-0.026963061030466612
aF-0.14271403080883185
aF-0.1086636155546029
aF0.17613277305428687
aF0.03084359064386849
aF0.19495134532029418
aF-0.16371370114533046
aF0.13636825463363544
aF0.01382435156136147
aF-0.16842850063719017
aF0.1264653150552315
aF0.028024905590302213
aF0.14284836202391954
aF-0.12727759961116347
aF0.04741696733597295
aF0.11478553636895028
aF-0.1102978082495567
aF-0.16615164516746722
aF-0.19110495437580388
aF0.11574374375796598
aF-0.17844434595616965
aF0.1185757064251694
aF0.07598988857752337
aF0.08571460925026331
aF-0.14436676229316872
aF-0.0006100764396980429
aF-0.08158781423335798
aF-0.0006740477545641999
aF0.07047783774484678
aF-0.1801290173097263
aF0.10512692460945966
aa(lp23
F-0.0376189126719067
aF-0.20306015221805343
aF0.01999802399313437
aF0.13520041805419233
aF0.18829940666389522
aF0.10312991531935117
aF0.0454422443327904
aF0.19405791020531715
aF0.1064528406222891
aF0.131017331208684
aF0.00710032965977339
aF0.11411779449094683
aF0.10126468307291756
aF-0.16027191942681893
aF0.18017004087846403
aF0.17134795128129712
aF0.036313754911057934
aF-0.06639024203010514
aF-0.2210347247277542
aF-0.07402657364222122
aF-0.14491229526992147
aF0.1760167142413191
aF-0.06554346925728673
aF0.08306285221747173
aF-0.009419023519294157
aF-0.055588663540511125
aF-0.0052886608145032345
aF-0.17131887606173435
aF-0.17274535702599172
aF-0.01138287598831612
aF-0.10310534974569507
aF0.16091593187390754
aF0.026503831480488127
aF0.09826848485529174
aF0.15493867145993095
aF-0.017394785945011745
aF-0.01875795881056583
aF0.03443780759732671
aF-0.13021018467539938
aF-0.09252278652647483
aF-0.08668732232102323
aF0.14712811657276562
aF-0.14314670289066997
aF0.05017533063409395
aF0.10953753995954252
aF0.07027702562972449
aF-0.01457194794584547
aF0.1732133133694937
aF-0.02611605675969563
aF-0.05811164733163618
aF0.18738541394200067
aF0.05736345140341604
aF-0.12403004975265791
aF0.17454943511442952
aF-0.1497928692866998
aF-0.2207821484851952
aF-0.09027230454330362
aF0.10988723999335467
aF0.002172915686031113
aF0.20086601091396658
aF0.0005399555592005001
aF0.1289452032041088
aF-0.048436817093221264
aF0.10816140792008354
aF0.06713885242459128
aF-0.15636854481159065
aF0.08397586156372412
aF-0.07771222298932998
aF-9.928233087069425e-05
aF-0.12271656644963876
aF-0.07882391644387687
aF0.09520926560775911
aF-0.01682156938894683
aF-0.0860958092533922
aF0.0641038759787719
aF-0.036159469633493424
aF-0.017075030988878206
aF-0.02587476019393856
aF-0.027751499390076633
aF-0.0333851697665238
aF0.07405775722526742
aF0.14818011440717374
aF-0.018533582593580206
aF-0.13962344842009972
aF-0.08601878344042332
aF-0.1635073385378974
aF-0.13799659310857523
aF0.11056795230503517
aF-0.09719731140160552
aF-0.12380627392795036
aF-0.02212214769026217
aF-0.20257834886656734
aF0.033405635068702845
aF-0.02736469659474819
aF-0.03391678827128607
aF0.11614314247985298
aF0.13724421546297086
aF0.13312910526732363
aF0.1081290410690025
aF0.1726006032731787
aa(lp24
F-0.16345030892547038
aF-0.20028495697272322
aF-0.0030650821081308305
aF0.08402272353486633
aF0.40497488926506653
aF-0.2356781805277746
aF-0.10804584629976301
aF-0.0927704808757471
aF-0.021455239675876776
aF-0.16969276755596777
aF-0.20826432230890055
aF-0.11900930460137273
aF0.11204794661204413
aF0.1607991257870583
aF0.36203451938077297
aF0.27725578099810594
aF0.08463234296784848
aF0.40967759533044984
aF-0.1259756468924118
aF0.2674918051035561
aF0.23851028473527863
aF0.09157078660628157
aF0.19894368975131582
aF0.014272249837081584
aF-0.3561244607712086
aF0.2656901693126085
aF-0.05154650845426762
aF0.04664290776071334
aF-0.008431581432286856
aF-0.3090607326937878
aF-0.06275034851660204
aF0.17554877192113386
aF0.1769427863792677
aF-0.15909449704577533
aF0.2896615591267619
aF-0.02922281233733744
aF-0.044183812919344444
aF-0.04493226281850573
aF-0.23664047899285254
aF0.019416179402003627
aF-0.178144146248242
aF-0.2295908625647531
aF0.2756303642211815
aF0.09563564170965042
aF-0.034236779514624886
aF-0.16804013114795746
aF0.04641732046705855
aF0.19765907738428543
aF0.0381646606641212
aF-0.23306295652910627
aF-0.1608622792783508
aF0.2812511449824026
aF-0.13375452159133816
aF-0.03216250467400838
aF0.0399186583672163
aF-0.0759042932359244
aF0.2779840561234055
aF0.18041414958293353
aF-0.04423121901090039
aF0.27621133640392265
aF0.1949769720529139
aF0.26351889200938144
aF-0.08212829220291276
aF-0.4205273900494852
aF0.18602388909143627
aF0.07221735859066478
aF-0.05310859988047173
aF0.32632910840926327
aF-0.015926102662291806
aF0.04237668340761647
aF-0.022911745552282252
aF0.008756169618561618
aF0.24122722456945164
aF-0.014786463336829987
aF-0.18099154835577913
aF0.19901142392149082
aF-0.17695034267826334
aF-0.20024071596995882
aF0.2760752347727179
aF-0.07891881164359002
aF-0.17366258914216964
aF0.25706740967914854
aF-0.07470001329588775
aF-0.18506163437404555
aF-0.12417915136124827
aF-0.07241729261360785
aF-0.10961520849535161
aF0.11268843663150577
aF0.09476704474242109
aF-0.07621297641010828
aF-0.4082846660098006
aF-0.042119285637922
aF-0.39357461209431016
aF0.07658846909009377
aF0.0011093569826008288
aF0.2590263124871836
aF-0.08882733282461977
aF-0.024142812138137598
aF0.04730460160002302
aF0.02611720448151917
aa(lp25
F-0.04978781073490578
aF-0.10387900804004067
aF0.30362353085484517
aF0.1263242591303014
aF0.27499182291133534
aF-0.2423121674942596
aF-0.1868649909989695
aF0.17769501400071128
aF0.17779748213267552
aF-0.0002483114253622144
aF0.022214864851548798
aF0.13764062159535748
aF-0.049098637090399896
aF0.37780422064395097
aF-0.0007252642636859429
aF-0.26216663702911996
aF0.27492506533347094
aF0.09859352778265768
aF0.043371853304461166
aF0.17153871631758233
aF-0.16024355834649784
aF-0.2247702148084156
aF-0.16351759925700782
aF0.19482045163742953
aF-0.15521975417584052
aF-0.11548173574471159
aF-0.03440265097227415
aF-0.08266480840255643
aF-0.09369544434387812
aF-0.06567124118169812
aF0.08447247949829037
aF0.3371864756198206
aF-0.18879467622964452
aF0.1405359027847407
aF0.02936850332519915
aF-0.07910745404110671
aF-0.17431670672975044
aF0.06646684199172304
aF-0.018033758469901583
aF0.1885221291209823
aF0.0628252693089092
aF0.04011145853446043
aF0.15781356242121275
aF-0.1428048841867982
aF-0.2859563885776827
aF-0.15851434767357714
aF-0.13866917231641662
aF0.00422757665502449
aF0.03184484815843557
aF-0.27845459975024217
aF0.10028561752462774
aF0.3252111097324471
aF-0.13892159319483996
aF0.0780485427664698
aF0.15843791772134527
aF-0.12902029807624574
aF-0.2006495930679515
aF-0.16546819122659367
aF0.21625614139007412
aF0.11831512137353227
aF0.2428315634213154
aF0.03526716367907224
aF0.05522058939048248
aF-0.17259349708702204
aF0.21970767875234024
aF-0.04950212830707259
aF-0.21486241421194943
aF-0.1472431965734421
aF-0.08911814877112006
aF0.005641917203899616
aF0.13022547273204133
aF-0.06558774208516716
aF0.22534111296440554
aF-0.22814227901648557
aF-0.31362078964690815
aF-0.06267684053527908
aF0.004549832719689344
aF-0.042682476648336826
aF-0.14880916723281315
aF-0.16093214196170452
aF-0.2614102195835842
aF0.1362864687691199
aF-0.062398161430055825
aF0.0785760754105102
aF0.17027799033305246
aF0.041432991086374014
aF-0.14914762996758346
aF-0.15079767009929834
aF0.3313767571461708
aF-0.07253214526622785
aF-0.11282773472914356
aF0.09123708853077238
aF0.04721244582637846
aF-0.24861195139457765
aF0.020982234669938957
aF0.1446375796496433
aF0.2642898277124504
aF-0.12515963705424193
aF0.15454738322324293
aF-0.1725073290385219
aa(lp26
F-0.034466361805415825
aF-0.1304094853108176
aF-0.07916679749433866
aF-0.15623049013483117
aF0.10574441359624823
aF0.06926113813276072
aF-0.36489446705097356
aF0.09788661699577847
aF-0.21176536347405017
aF-0.34027255844959753
aF-0.41593956409861016
aF0.08171220368093113
aF0.12609545865369845
aF0.036261143502339305
aF0.11646872135153924
aF-0.09181530758844775
aF0.16777735953075568
aF0.3204548560134316
aF0.02040752797966834
aF-0.28581198745524494
aF0.4148146714686244
aF-0.22540413810859314
aF0.02238514142483612
aF-0.07295188453347184
aF-0.04921186461693457
aF0.24666734237662763
aF-0.1385194602053026
aF-0.05238263693484299
aF-0.08144268836101856
aF-0.14871679158947218
aF-0.07865850282636862
aF0.44129092918574625
aF0.0062603462166104865
aF0.13606446389995785
aF0.12136832555245443
aF0.2418273852458451
aF0.06685130554398286
aF0.013971290895877118
aF-0.34269174208820263
aF0.22829162517406212
aF0.3393480414645192
aF-0.14924568275654387
aF0.10595346873426927
aF0.15675076864733525
aF-0.0018839207824944784
aF-0.4154555345030479
aF0.02143807473241674
aF0.051480039219454855
aF-0.026056360278563014
aF-0.02285535127205824
aF-0.010245333617729642
aF0.2914961876781873
aF-0.09897751867557594
aF0.4103734402015173
aF0.061684896979925706
aF-0.5234930585922535
aF-0.015357624452939844
aF-0.35718006753126147
aF-0.3217359184259792
aF0.2594817343795369
aF-0.029169835615466554
aF0.20201108955941152
aF-0.03782296966085202
aF-0.20349340749594352
aF-0.07265165846233679
aF0.36598143084380597
aF0.3693947757144991
aF0.11365657127190694
aF-0.16449267726428746
aF-0.3059747420942202
aF0.054473429760464334
aF0.3153193281674385
aF0.07052707296846075
aF-0.07647831898335496
aF-0.18734344354853252
aF-0.2683581908901004
aF0.28593498104681764
aF0.07076364731337917
aF-0.09538477512351007
aF-0.060962084319198695
aF0.1651107459923693
aF0.16714301622360644
aF0.028494132952371614
aF-0.2273927258774393
aF0.11564273533313253
aF-0.10423284182098146
aF0.015373512435142121
aF-0.13267782049576732
aF0.36107437960420224
aF-0.29079871388535555
aF0.25593076274561544
aF-0.2668456366618752
aF0.20666338082867755
aF-0.2137273200821153
aF-0.08098988219472567
aF-0.04987267979629034
aF-0.13244616810719675
aF-0.07752395726626608
aF-0.2604228498650031
aF0.021954596250388956
aa(lp27
F-0.6104693815529542
aF-0.24177430318133142
aF-0.25526729629148903
aF0.0725138921895223
aF0.24916172358947805
aF-0.39090295146096427
aF0.3960785659950796
aF0.45852310274490166
aF-0.5859248561417147
aF0.3022248074529696
aF-0.10419848336231544
aF0.09133600493144844
aF-0.4148654112983935
aF0.19535193741389834
aF0.5719183826356142
aF0.10169369451741567
aF0.2520049583496902
aF0.2660638933544393
aF-0.16733841054518211
aF0.19897372413167477
aF0.1653733520660324
aF0.16413164349047135
aF0.32331271744320245
aF-0.054783029648911304
aF-0.17723461671116275
aF-0.06647063385948494
aF-0.2074149933522761
aF-0.24109560611134867
aF-0.150272586499665
aF-0.15828127491905197
aF-0.03493023408142258
aF0.3432817286607612
aF0.23314062084451154
aF-0.19764049773101938
aF0.17861691723900672
aF0.26399636885926125
aF0.04253150179107978
aF0.09728433562893016
aF-0.43580607740104
aF0.15197289032778893
aF0.08591781253744904
aF-0.0941711542692084
aF0.3590100604105637
aF0.3226500271242628
aF-0.08581155954973817
aF-0.003723905829614813
aF0.19805404791462874
aF0.11785442865989809
aF-0.04641556765790097
aF0.03126512835982177
aF0.23294836150356202
aF0.277108081131923
aF0.18041969279184084
aF-0.15705932911893405
aF0.24503218906225016
aF-0.1175802551997517
aF0.17947535288183156
aF-0.023119892692572364
aF-0.4117506629221678
aF0.2233132989422655
aF-0.05222145514046553
aF-0.02233687949604703
aF-0.047571939858686775
aF-0.3551866119781342
aF0.1661855865736698
aF0.6969051524862876
aF0.011775569755949997
aF0.21844231475590825
aF0.14847038673890087
aF-0.19760185392606813
aF0.22988817592029653
aF0.16382287742026633
aF-0.03513217854019154
aF-0.43597926854676977
aF-0.0016159544411981366
aF0.3603992363919161
aF0.3802943052912186
aF-0.012461128366905825
aF0.1765799827773452
aF0.13734109867789387
aF-0.20586842019707322
aF0.04765509075119445
aF-0.29347094458496115
aF-0.08049838775798393
aF0.21010259364297548
aF-0.11953229704524036
aF-0.451993896538942
aF-0.13670758035650163
aF-0.10704335909339126
aF-0.5340776661282411
aF0.24699354268573187
aF-0.06418074052296195
aF-0.09812877416722586
aF-0.17400001523851724
aF0.11440300370046314
aF-0.3202017240574829
aF-0.13976869300684758
aF-0.011534035445194503
aF-0.16985791764274732
aF-0.24268521969023402
aa(lp28
F-0.003156042512669181
aF-0.29693746435726215
aF0.09116411382311385
aF-0.08877641936738759
aF0.16423916953273068
aF0.041566365502362645
aF0.12038836256508637
aF-0.07823911081567547
aF-0.34958361297085616
aF-0.006271036568958537
aF-0.2884360180007505
aF0.26888542671140825
aF-0.025686056292374224
aF0.294936430661372
aF0.26922338237268195
aF0.0853711572992482
aF0.1078618947918944
aF0.31482034477476456
aF-0.07152686975950141
aF0.005552622116877481
aF-0.02846124474301358
aF-0.36721152553603054
aF0.06528751174066137
aF-0.18997878180895592
aF-0.27566923868713833
aF0.0293597606302087
aF0.005170302444672559
aF-0.05473499468758311
aF0.029232274712979348
aF-0.29812879648061125
aF-0.11602106034450965
aF0.06663892755807198
aF0.3476327264308984
aF-0.002761313803563927
aF0.1143109724473632
aF-0.030756585797059057
aF-0.05314791665997343
aF-0.03033934329154422
aF-0.17008432493359607
aF-0.1256913140510091
aF0.10764284923995024
aF0.0244839425832558
aF0.2481368107602045
aF-0.10237435646729588
aF-0.3154195615146338
aF-0.2439753846655536
aF-0.1931324999764548
aF0.07071906106411607
aF-0.19402769009794318
aF-0.06339288695290632
aF0.1015296717322443
aF0.32129345031891116
aF0.04908032568767777
aF-0.038717687226471384
aF0.11248700382390608
aF0.132425124769887
aF0.008294598417837123
aF0.12694517314985454
aF-0.2231440099437808
aF0.16883604713961128
aF0.030624535727526752
aF0.00907814564384138
aF-0.04479208649349909
aF0.11984890700888635
aF0.039403319633119605
aF0.15666986311312428
aF-0.04366441866355704
aF0.24434110542833565
aF-0.17267546049597288
aF-0.11022544151151775
aF0.2990277645713881
aF-0.088415368057782
aF-0.13774688094001905
aF-0.03992744335119424
aF-0.22409077521776363
aF0.17224998617908688
aF-0.11978516412254121
aF-0.0851049207231455
aF-0.2219837144111638
aF0.0031437654453542207
aF-0.26543601817282203
aF-0.08757653220522332
aF0.05391730720790547
aF-0.24467432095449929
aF0.025189502997828576
aF0.14451214054850592
aF0.05718632829589677
aF0.05470264049496724
aF0.25974950937425756
aF-0.2724240904251686
aF-0.14084117719947933
aF-0.078676104790142
aF0.02502467726321593
aF-0.19690482678633706
aF0.1556784320198603
aF0.07749676946415192
aF0.0851923172692621
aF-0.2688489613268587
aF-0.07299532758986228
aF-0.1995574654907943
aa(lp29
F0.15915921604950656
aF0.04949593510492562
aF0.07302158443541122
aF0.09147766638449738
aF0.20465299233389242
aF0.008561453902529714
aF-0.19593554438122435
aF0.021583414925639147
aF-0.21927266911739565
aF0.027935478427260296
aF0.11449030761868005
aF-0.06409295678355803
aF0.03438061340516755
aF-0.15673350308997222
aF-0.09073805865254386
aF-0.04340696517132371
aF0.031107962100727762
aF-0.09488210482089937
aF0.046986477759804746
aF-0.15437240472364752
aF-0.00021610082146676662
aF-0.16995470876478697
aF0.2129827995375984
aF0.19048281727311323
aF0.04329290005221394
aF0.15327247486302875
aF0.06364537849166423
aF0.135448454805551
aF0.16212099080069947
aF0.01730626795958194
aF-0.01664224496606326
aF-0.05566748493212466
aF0.08767239529379779
aF0.04547780318913704
aF0.15812862840290665
aF0.20973086838573696
aF0.024656170281445774
aF-0.0853432633950549
aF0.1330252792501304
aF0.13804220323346103
aF-0.15147369038623046
aF-0.04055740322144831
aF0.04718515980027152
aF0.0021713552252018184
aF-0.1949253310484382
aF0.10185218677921308
aF-0.028887123886229108
aF0.09254327516445392
aF0.14084950156293985
aF0.18638578897297103
aF-0.03661602919454717
aF-0.10549709604157674
aF-0.016313514832324776
aF-0.08978905414052261
aF-0.10351755454397063
aF0.12625218096378196
aF-0.07198576208109891
aF0.004759873647232872
aF-0.052619533536641505
aF0.02064293540071402
aF0.09009284384000327
aF0.08060713786879047
aF0.1663128659801223
aF-0.0022428357524926588
aF0.09616982872879301
aF0.0382988544903239
aF-0.09901733026740657
aF-0.11914963970574004
aF0.025815871354172442
aF0.036896689803689826
aF0.0913762684217152
aF-0.1621626690173805
aF0.0472053859284762
aF0.09028706161456904
aF-0.26128098948179423
aF-0.05701973773468595
aF-0.0908504500437492
aF-0.1918431976235697
aF-0.24913647813568096
aF-0.052528552843808515
aF-0.00021919443363937734
aF0.038373525279387886
aF0.08989468485848112
aF-0.09545486773675568
aF0.2499718745588666
aF0.019328313080558834
aF0.032405900754289535
aF-0.21004204842672997
aF-0.03361997697214316
aF-0.1096330599625926
aF-0.1359608890916206
aF0.02447705422700254
aF0.12628157577116783
aF-0.1119646568976654
aF0.1211374561575713
aF0.10524098538443437
aF0.0427844556516875
aF-0.20791019081587145
aF-0.20242628210843647
aF-0.11663964559896416
aa(lp30
F0.1539826802628384
aF0.13085477770316012
aF-0.20048526902052285
aF0.13181624594562394
aF-0.0009857738679285492
aF0.16724259460909294
aF-0.15142053535321504
aF0.09497355216794591
aF-0.18700168716420137
aF0.10962399747029168
aF-0.029796534822025263
aF-0.009565436261634972
aF-0.1767819416206833
aF0.07960666753753652
aF0.03209099329549234
aF0.18585853107436864
aF-3.260353914815151e-05
aF0.06323285917548721
aF0.1294346821517624
aF-0.09410671496558734
aF-0.02087852405363354
aF-0.19185823877054134
aF0.12573723548503465
aF0.07126509925643788
aF0.06299045370364825
aF-0.004012483412536104
aF0.1561837614741852
aF-0.02149617790224606
aF-0.16643748974732456
aF0.09497565274216828
aF-0.17280576912164747
aF0.19753493285930965
aF-0.0437361329735942
aF0.09555747794645097
aF0.08994638996296009
aF0.04306173477075565
aF0.09077293278159933
aF0.18802701723988385
aF0.06112711075880254
aF-0.05485333804422438
aF-0.12988967432632198
aF0.06460812088823577
aF-0.04057050375681322
aF-0.15740337952600472
aF-0.17470317266240656
aF0.13578737225138787
aF0.08720417101988147
aF-0.10049696802897408
aF-0.1615605845596118
aF0.06977366884563757
aF-0.01180065334476081
aF0.032051636222499125
aF0.17543999089957948
aF-0.1064001375825545
aF-0.1378727006942871
aF-0.0839471930549809
aF-0.16303601733495868
aF-0.1154068892145694
aF0.1454887835888986
aF0.17594509321374893
aF0.1499959054760813
aF-0.15357781516877
aF-0.09148748142593331
aF-0.10095780468426445
aF0.14459017729328735
aF0.1076157148633751
aF-0.074833176032229
aF-0.19922988639927583
aF0.14528975549830844
aF0.14993780350594882
aF-0.12913322660875773
aF-0.0883437873413543
aF0.014268731153532149
aF0.14701523193406596
aF-0.006003061034270121
aF-0.1227020345817852
aF-0.061082568348024745
aF0.15567540042643838
aF0.14058793041587558
aF-0.12599866887476432
aF-0.08622481384250488
aF0.0921810294858972
aF0.14788645863825323
aF-0.09299870576806459
aF0.08492625765044817
aF-0.1404071156417101
aF-0.17470104622915833
aF0.014242996069546033
aF0.03796136025477756
aF0.06304338059183005
aF0.007959007664997403
aF-0.19452759517628884
aF-0.11096265315426825
aF0.012815545912738419
aF-0.05317255626573894
aF-0.009796704345919702
aF-0.08645316522037866
aF0.03617766385740309
aF-0.015076763127839747
aF-0.13849368641906137
aa(lp31
F-0.026400224728493443
aF-0.10574744506189777
aF0.020869117565927346
aF0.2613780354039119
aF0.10377021417696956
aF-0.15894691943453257
aF-0.10954102817605624
aF0.023591738920991798
aF-0.07124396472886406
aF-0.1297922833920186
aF-0.09480974840472273
aF-0.131129334763936
aF0.19338275093566437
aF0.19796554818516784
aF0.0724102440696274
aF0.06869440383356926
aF-0.074470750760847
aF0.02986916195808518
aF-0.2554393406338206
aF0.057417494076056355
aF0.2513706722935992
aF-0.03942147925706864
aF0.2032493366965303
aF-0.09746681974584744
aF-0.19212893529328096
aF0.28020014631134793
aF-0.31244045415851984
aF0.10726131663136777
aF-0.10672734864648285
aF-0.1638126752392844
aF0.1637013922939771
aF0.038243730856746413
aF0.1289248591424488
aF0.003629829277594237
aF0.20817641559164057
aF0.03835886439694317
aF0.02743158093478625
aF0.05913873063859392
aF-0.05739028828596438
aF0.23331026810250008
aF-0.048687337790082434
aF0.18117039622052106
aF0.2533961451110126
aF-0.16143623598470025
aF-0.2119054833460343
aF-0.00993628849550294
aF-0.08095080551509196
aF0.1529830048440978
aF-0.11778621611616423
aF0.07992800829633565
aF-0.10104085772609758
aF0.2723059990502342
aF-0.18374592120878214
aF0.14774981426220576
aF-0.13217092862872187
aF-0.1538029275961928
aF-0.11719059214029703
aF0.24443846594110688
aF0.04318927885775192
aF-0.06526638604737225
aF0.151899275388897
aF0.193776368645067
aF-0.02578514820232487
aF-0.2581910996129531
aF0.19963646107452773
aF-0.15712082388176415
aF0.005186841999491226
aF-0.02427602949629574
aF-0.09466992346412388
aF0.13872253466745996
aF-0.13010563162908295
aF-0.10777268548906153
aF0.021906765006090474
aF0.09559250214042032
aF0.0701853218766058
aF-0.056735523357267316
aF-0.007460212625526731
aF0.05514900073981384
aF0.21165980471573978
aF-0.07835489347518941
aF0.09712076701464344
aF0.18986373451287267
aF-0.10486316833558751
aF0.22355840384223613
aF0.1268787319972689
aF0.17436964011584685
aF0.2373299087298425
aF0.07449560642886509
aF0.243385702850735
aF-0.2570985103091499
aF-0.029097884727901983
aF0.08938682680688101
aF0.09724569602308338
aF0.009869090324016255
aF0.20062555293439086
aF0.10416224213793208
aF0.13466436921412642
aF0.13139682946766543
aF-0.14461971075391744
aF0.1671236269435585
aa(lp32
F0.15770496942835988
aF0.25103513502394253
aF0.22531066203179193
aF0.053857186649568095
aF0.16314554303963116
aF-0.3197389994677269
aF-0.2612426164588036
aF-0.259766729602919
aF0.1828468023952153
aF-0.40870593121167925
aF-0.3813018953389708
aF0.10157454247436659
aF0.5164138724259918
aF0.32696921747211527
aF0.10980419522327924
aF0.14006031558688783
aF0.32987240332872153
aF0.1616769758315631
aF-0.21197524653767086
aF-0.13392865422256295
aF0.3940813441855897
aF-0.320421632748597
aF-0.01218003484357035
aF0.033102000938137595
aF-0.3721347399905973
aF-0.0010526629263745604
aF-0.6072582564034905
aF-0.2177002119075144
aF-0.04647252386345722
aF-0.2865768771625187
aF-0.012072696418972207
aF0.38369417918477133
aF0.06794554383035221
aF-0.25361769074992074
aF0.4807353138062341
aF-0.3497217467961907
aF0.07739822872797701
aF0.02346751053080084
aF-0.029142811503157773
aF0.12320421645403931
aF0.12154899914392876
aF0.17593936364503168
aF0.20476256112392374
aF0.07885266679018678
aF-0.29582565437431824
aF-0.05206485866591436
aF-0.024193769544501555
aF0.010791863760675757
aF-0.36125209330633656
aF-0.41570084993184514
aF0.14018638796263597
aF0.364353348750384
aF-0.3542524683333354
aF-0.04535462699642832
aF0.03245442025100893
aF-0.04634158725270371
aF0.22861405826943537
aF-0.5292313548949417
aF-0.053492349973523694
aF0.13765374465548885
aF0.1517302309856591
aF0.014770198244444269
aF-0.07802539453627792
aF-0.613321059387761
aF0.2086815420330352
aF0.34959173019697365
aF-0.026891430438010074
aF-0.04740980420337324
aF-0.35328993958704824
aF-0.17641113226890903
aF0.0688593120726184
aF-0.3776121144521855
aF0.29486044116288
aF0.0348274890362121
aF-0.17898249737397687
aF0.2632082936874444
aF-0.4458433774488206
aF-0.1268094541591146
aF0.014683047129112125
aF-0.23864624003270796
aF0.2740537679832304
aF0.2697298242112522
aF0.08803152601337504
aF-0.0639360208851641
aF-0.04740017507216963
aF0.22102469121939866
aF-0.08175512172443317
aF0.1654349632809077
aF0.4833247691440722
aF-0.29532049817029804
aF-0.06420588895170322
aF0.013524283321705806
aF-0.0477784584819503
aF0.040222732370549255
aF0.2773229641877903
aF0.3445752183328229
aF-0.00408289124048994
aF0.2750893152990519
aF-0.3123277748814778
aF-0.2254654007860532
aa(lp33
F-0.06380627553149623
aF-0.09871122808263849
aF0.0027167790559143616
aF-0.07479101678007273
aF0.17932395192384945
aF-0.019862590726731515
aF0.0743433231744417
aF0.0799408722033902
aF0.14185816544624338
aF-0.040374449888427
aF-0.12667885061001902
aF-0.03658717043397422
aF-0.0070432448172328965
aF-0.0036564457651834205
aF-0.1469140272027873
aF0.0003199229444528824
aF-0.002235696627391589
aF-0.043083473665804006
aF0.13756248043564775
aF-0.028083694603809512
aF0.12397521213444822
aF-0.23873183328323347
aF0.09272593861498878
aF0.1435481284701363
aF0.08792846913023451
aF-0.2018188261539109
aF-0.011854831873587823
aF-0.10871728110377052
aF0.09384504039967946
aF-0.09696705689674565
aF0.19718266307236376
aF0.031788139593437154
aF0.08732245341052802
aF0.05772753833614561
aF0.16375945953384424
aF0.037839313604383175
aF0.023122289306976178
aF0.1334188467899277
aF-0.05978773115663345
aF-0.15588781138445632
aF-0.09243573714451625
aF0.11111948709830073
aF-0.0766721407926464
aF-0.09323565597253476
aF0.053937221072567626
aF-0.027695367445893335
aF0.02688461358076099
aF0.03010181665754342
aF0.10286074909323789
aF0.09705927085602932
aF-0.13456919468943407
aF-0.08979681609071813
aF-0.06737449445628227
aF0.0381994317417906
aF0.032609365116940583
aF-0.2322106029478763
aF0.12941459315133616
aF0.038040303910255494
aF0.11593404113801631
aF0.06703505666529799
aF0.11898179331643076
aF-0.02644477683820849
aF0.014288738558237942
aF-0.01993525149872731
aF-0.21422500249476992
aF-0.2086277933497565
aF-0.08867351166527529
aF-0.17192402766905032
aF-0.2332811565714501
aF-0.17016114814683925
aF-0.21596938240976976
aF0.0013008681457571441
aF0.01300348600168879
aF-0.02230872246925683
aF-0.043065360442161825
aF-0.046240273775616854
aF-0.10515604510664059
aF0.010486769340585669
aF-0.0008924263362686954
aF0.08043096106853884
aF0.0017829746140888517
aF0.05230360359568294
aF-0.1373505723032597
aF-0.1795412136151798
aF-0.078465969327617
aF0.06750750213691654
aF0.07348274972283651
aF0.1172866712282022
aF0.10133926793929864
aF-0.21578842381858962
aF-0.18800559121513574
aF-0.14435141757363945
aF0.20772794069056819
aF0.047031106577354646
aF0.02105089934353197
aF-0.011313504174869303
aF0.004208531658086486
aF-0.11150302814237259
aF-0.038104607035544975
aF-0.24161827936301508
aa(lp34
F0.08805009875654582
aF-0.3290996762083991
aF0.21505019010732954
aF-0.0029122865153295725
aF0.4705992098434052
aF-0.3354316699198952
aF-0.26765384527121433
aF0.2363524318001288
aF0.1581059142201342
aF-0.1306611157176064
aF-0.00796048349488145
aF0.24671245840764622
aF-0.18287888479254238
aF0.23656700015182713
aF0.1426911761047483
aF-0.29153767393803554
aF0.10220889479949356
aF-0.18143138343165233
aF0.30391679062555366
aF0.2417315076716026
aF-0.2287981185213925
aF-0.1060332430880414
aF0.19279655619424244
aF0.09313101258890653
aF-0.1706037576756941
aF0.2046600801802844
aF0.06391787271682103
aF-0.12975822462582268
aF-0.20583904547898557
aF-0.43409028703490116
aF-0.05931690216301226
aF0.2566504122035172
aF-0.2858813198040513
aF-0.11090601837022057
aF0.11172866651085979
aF0.17403893345032395
aF-0.07637748209225037
aF-0.06385363990481671
aF0.08989573675378536
aF0.029708976096769788
aF-0.19326302735506729
aF-0.014537512778760453
aF0.3403326171001423
aF-0.17538049826855745
aF-0.060545353949728015
aF-0.066867905178809
aF0.09212881404766834
aF-0.1431013897779764
aF-0.0708197986086181
aF0.1848220567505258
aF-0.11882220015713002
aF0.28608054914571085
aF-0.15544571229429474
aF0.038670092501254395
aF0.01699369379927594
aF-0.21211533953125858
aF0.038457558591117894
aF0.310181985220683
aF0.10618872392511547
aF-0.33283072947165504
aF0.36212700541443277
aF0.24157642048869035
aF-0.12842687186868465
aF-0.1596725121315365
aF-0.020771232215461784
aF-0.05856019864993144
aF-0.38897528676937093
aF0.11064011374863625
aF-0.1313338312066875
aF0.2124684090891827
aF0.4792626928403676
aF0.0004485247008017212
aF-0.20814375612701896
aF-0.36618663149541214
aF-0.21345702173899891
aF0.259726889616728
aF-0.3612906130059166
aF-0.22020605725170125
aF-0.3527964880293286
aF0.13634658181747028
aF-0.2661165398060674
aF-0.10287262022351758
aF-0.4289976345032934
aF0.13411251011585676
aF0.12278898251266435
aF0.1612226838192162
aF-0.0175770328110254
aF-0.21191718529371034
aF0.07152793873625432
aF-0.08621828089998951
aF-0.09392090123924657
aF0.18667331579105492
aF-0.032887792752225246
aF-0.2716967346227366
aF-2.606121918223114e-05
aF-0.05000246903485343
aF0.5373590003376814
aF-0.1691125498075571
aF-0.061676114336855666
aF-0.22541193030825774
aa(lp35
F0.2657243480904886
aF-0.023232485268974364
aF0.10796484615230298
aF0.1956915689384272
aF-0.1459127398935771
aF-0.40882713298680046
aF-0.17101414159368297
aF-0.1743364019401309
aF-0.09485162864352183
aF-0.4575004978038208
aF0.14459225710990056
aF-0.11056440847262533
aF0.26560225577607705
aF0.1387762055229976
aF0.1936469873138332
aF0.0700292289529982
aF0.25101413635176206
aF-0.04297223329676715
aF0.05500723685769781
aF0.23532365292965804
aF-0.021220786626951642
aF-0.3343321433556709
aF0.05716591661065816
aF0.18831606629160122
aF-0.1517021586744052
aF0.23543489998463166
aF-0.1812416283846581
aF-0.05667562313310357
aF-0.26927679786172076
aF-0.3873252628765473
aF-0.4424136577995133
aF0.11728824396896438
aF-0.4018206182925178
aF-0.05058438113970696
aF-0.12236352412979391
aF0.11200581031678072
aF-0.09231242667197752
aF-0.22752905340770038
aF0.45993914854080414
aF0.034648386530666216
aF-0.022889257414930912
aF0.048850287759090345
aF0.3114725257761571
aF-0.04545264324992796
aF-0.32514043870590664
aF0.25770081820516716
aF-0.0375095807326788
aF-0.4193145430617596
aF-0.02765175311161769
aF-0.2555672696808807
aF-0.24047460628722603
aF-0.05336598627053757
aF0.02018584250627169
aF-0.37417845288362783
aF-0.07065097491723084
aF-0.0004545393630631182
aF-0.0552823338602988
aF-0.4159462298372452
aF0.5378841536124883
aF-0.5432713916688667
aF0.13236233720701018
aF0.15928013680575434
aF-0.13571501818866258
aF-0.3525501622217864
aF-0.019850005160486916
aF0.573219034732333
aF-0.43270127754899934
aF-0.4301877429895747
aF-0.1744923048544274
aF-0.10414360221749966
aF0.018470989017722653
aF0.1661610319111874
aF0.1085819901313251
aF-0.03107632512811605
aF-0.1805343113574728
aF0.3480572844835441
aF-0.23905831846345418
aF-0.12496077950077504
aF-0.2695144249151801
aF0.06307515157276598
aF0.12140099284383181
aF0.17541304249088913
aF0.1603799299469677
aF0.4198794466446799
aF0.004562588755113461
aF-0.18741099083098897
aF-0.18107403265426159
aF-0.42285714279617304
aF-0.01958819713342534
aF-0.002468803534715968
aF0.2279461009127714
aF0.21207735488919816
aF-0.17217914049032063
aF-0.4613908275352915
aF0.10720561576511418
aF0.023915200761999645
aF0.09075303766600973
aF0.156585977595169
aF-0.30321304823783723
aF0.17203775491410528
aa(lp36
F-0.0007005358427959288
aF-0.21118552835215085
aF0.01876472302545708
aF-0.15749028039865948
aF0.0735646552840192
aF-0.3205126550140444
aF-0.07164403081388372
aF-0.12871452674351272
aF-0.0304591376113753
aF-0.04001770160771995
aF-0.0619609075282808
aF0.093718636948082
aF0.037530820577218994
aF-0.09729515430215571
aF0.17741205776693675
aF-0.14268070864772422
aF0.24823775575434986
aF0.029863259812703817
aF-0.05226588700466075
aF-0.06144740020657161
aF0.2122392437001597
aF0.001147191742817043
aF-0.04719527512941836
aF0.004060447253167476
aF0.04041788108060278
aF-0.1439412929987411
aF-0.08096783419021178
aF-0.21125770135260172
aF-0.11494617103791571
aF-0.28189397512480296
aF-0.35763961686466017
aF0.24387219568537102
aF0.24229353540458132
aF0.08335750737197356
aF-0.07440386812053824
aF0.18762549173949095
aF-0.024570340523130143
aF0.17449900797242496
aF0.0832860500583918
aF-0.13109217561586228
aF0.04710314487056555
aF-0.035160229838352326
aF0.05828269662701172
aF0.016521151034707204
aF-0.10806166710226187
aF-0.005998047107031315
aF-0.12966501800732902
aF-0.08420152964552166
aF-0.23696886306959575
aF-0.19888666651427314
aF0.017676356301146175
aF0.0030494917686806275
aF0.13195042640301127
aF0.08544599051244518
aF0.07031865789970866
aF0.014385019651028227
aF0.0646834582965502
aF-0.020998642257935324
aF-0.023613800154348056
aF-0.08888845146094874
aF-0.15943270708342508
aF0.14501417640876924
aF-0.14634851105927593
aF-0.2512195759114665
aF-0.03363200216754515
aF0.41241980170183473
aF0.0026634929441287135
aF-0.22673309635007582
aF0.10834841626188016
aF-0.02763737112410456
aF-0.05145279151516905
aF-0.08504082997259285
aF-0.013154600806180132
aF-0.14293837884232588
aF-0.03416863161432155
aF-0.11757715578795229
aF0.04769654750115176
aF-0.16426710302599995
aF0.019397845125479856
aF0.23120722715416617
aF0.04542786606097784
aF0.21922564075479023
aF-0.055998198752586666
aF-0.18273801533515083
aF0.20910076788217383
aF-0.0789200339634081
aF0.11997171826438603
aF-0.3356749748857499
aF0.19649517369498712
aF-0.04985680487982208
aF0.16645842866887234
aF0.08642076120926623
aF0.04173859758790813
aF-0.05686527570202446
aF0.2691675347347084
aF0.17222364642406868
aF-0.12523942170876257
aF-0.12354876962949503
aF-0.2965495231737394
aF-0.16271625372311596
aa(lp37
F0.15402767466520617
aF-0.14094270585490318
aF0.18945883318809573
aF0.004102835231034557
aF0.027414660723151466
aF-0.10039300727409886
aF0.025409566070176588
aF-0.1556472906043772
aF0.11573232259006606
aF0.07440035287548749
aF0.17896990284092917
aF-0.07509315938463612
aF0.08114918463654196
aF0.171820648767884
aF0.016034269702483537
aF0.020468200581846667
aF0.025168801822802934
aF0.12438714151296662
aF0.19938804266490218
aF-0.05592755155425431
aF-0.1693726661653916
aF-0.20714511305869843
aF-0.035616245671006234
aF-0.08868934184056015
aF0.10684136168649665
aF-0.22818588187112604
aF-0.05223296633709941
aF-0.03823855731906187
aF-0.09287288271651666
aF0.1807534597009179
aF0.006812480940894981
aF-0.0334514275231608
aF-0.04415693996918708
aF0.04700152590353927
aF0.040043658768323366
aF0.22655559831769267
aF0.1404891619449366
aF0.07263883948467625
aF0.10807129095269098
aF0.0008831507137655792
aF0.18923371431460573
aF-0.2045616060596837
aF0.13691294875530002
aF0.10552990401961301
aF-0.09279139829083331
aF-0.010550958510726403
aF0.07129835420673339
aF-0.01888900187849041
aF0.09297957378135567
aF-0.10264146330267583
aF0.017962113526912606
aF0.10519233480626766
aF-0.056005221153431914
aF-0.19131212770033953
aF0.03788361770412202
aF-0.08571328552913311
aF-0.09360914177224619
aF0.2277203045668637
aF0.13865119754066232
aF-0.023886423949411095
aF0.06360422398213153
aF-0.15281785480014723
aF-0.1878889465472954
aF-0.1281071023228848
aF-0.014059471851730676
aF0.04080725960209127
aF-0.13203706428596745
aF-0.1361535007140798
aF0.11482023687010535
aF-0.007749297386410891
aF-0.09336763367920287
aF-0.0606372476616511
aF-0.031411390600120416
aF-0.08606837717675178
aF0.0754834419267604
aF0.1042404031199796
aF0.00017735510418865355
aF-0.07310017587396947
aF-0.19834621703145125
aF-0.14366692013026494
aF0.11243514348703261
aF-0.06019320499084653
aF-0.004478910618609723
aF-0.040343090499073926
aF0.021669828282409424
aF0.20641780919909933
aF-0.09522225647701793
aF-0.20827933994075237
aF0.10024076308484223
aF-0.11813710776040406
aF0.025411996849537224
aF0.08992651314206329
aF0.1560936246882819
aF-0.17512320884097304
aF0.05402658829335362
aF0.158136076329238
aF-0.1275837436433788
aF0.06986884083006792
aF0.13272179833509995
aF-0.011885816750440622
aa(lp38
F-0.17167606555588874
aF0.18202697606816878
aF-0.10745559204160496
aF-0.12653959594616446
aF-0.015035565781912657
aF-0.11546407362130014
aF0.03821244774265531
aF0.09708364866504966
aF-0.0576828136128134
aF0.18084508309790054
aF0.13106256928688578
aF-0.03926838262421984
aF-0.10482854494110745
aF0.07925206842462355
aF-0.1641103426569649
aF0.030349121681713477
aF0.10150539647106151
aF0.12748235171034875
aF-0.08675549682939913
aF-0.038617861199993705
aF0.10579228403724614
aF-0.006496708065226662
aF-0.03921983008560979
aF0.16824490521534163
aF-0.1546141298867202
aF0.08798997332101106
aF0.019754252465630968
aF-0.05817507580454262
aF-0.16547406672423534
aF0.011498983767075241
aF0.12752165725930636
aF0.08515280761839902
aF0.0720865279962446
aF0.17574405033385362
aF0.09743391387154557
aF0.06769460838408757
aF0.17769173331543728
aF-0.07586843203324718
aF-0.1663647565708674
aF-0.08037229128950442
aF0.1756935818742008
aF0.11238938984768403
aF0.15866289533320696
aF-0.11236655420976548
aF0.15261618584039097
aF0.0512072224300703
aF0.1254559239095598
aF-0.19037262277721353
aF-0.17655640999977412
aF-0.14936285113729714
aF-0.18948815450432166
aF0.06041752791222833
aF-0.042676759879574436
aF0.07729220106922238
aF0.06300788422696457
aF-0.16567228272825396
aF-0.12834770624428168
aF0.0880645480699447
aF-0.15546478563062147
aF-0.09025324997736957
aF-0.14036884629821283
aF0.103982900276656
aF-0.029447733225145323
aF-0.1603949629990346
aF0.1488565702487756
aF-0.14546658057979078
aF-0.05751216342853545
aF-0.07977021400442087
aF0.0702045820474138
aF-0.05129166942909829
aF-0.08565850650889482
aF-0.0026314940128385677
aF0.05986311377646153
aF-0.0876805901316902
aF-0.05961589988155604
aF-0.13161791606995818
aF0.04843119924656555
aF-0.050398838067141224
aF0.16232465885389458
aF0.17899049428583932
aF0.09316736059565738
aF-0.16056930520800153
aF0.0399862072209331
aF-0.015270742015388115
aF-0.03383185341265278
aF-0.03460422101740227
aF-0.19343806242879283
aF0.1634313906225313
aF-0.18606422386916358
aF0.17890375525830124
aF-0.018214266726636816
aF0.18973187845405073
aF-0.13430744017094104
aF-0.08607698877498059
aF0.1492636324349526
aF0.05269929485964302
aF0.013621897713375424
aF-0.07975117455421525
aF-0.1007017576836717
aF-0.1492806107809549
aa(lp39
F0.027872654819999766
aF0.013807755611651084
aF-0.030023353504720855
aF0.04646134403350656
aF-0.18816977038582594
aF-0.08759164004824808
aF0.11461053409300766
aF0.059013034171144556
aF-0.004456248159881665
aF0.023469299548027504
aF-0.11703640354767961
aF-0.1357025668854727
aF0.07208102421513034
aF0.20450739894730877
aF-0.018855580796808307
aF0.33339537457114893
aF-0.04601311680692125
aF-0.1944776042181373
aF-0.1350427063533448
aF-0.09883329859724406
aF0.13173568488976647
aF0.1471858274647677
aF0.13389697429406566
aF0.14745510099302403
aF-0.10507337495481602
aF0.0735652271307535
aF0.056647813655357655
aF0.013763822476433686
aF-0.08657691907098797
aF-0.1786111802477224
aF-0.08904491191737705
aF0.017572353372839248
aF-0.14357049296985688
aF-0.04115367178901461
aF0.12176697945182413
aF-0.18520130923808723
aF-0.033501774222003476
aF0.20298336554183447
aF-0.16868631103896306
aF-0.14003906270375627
aF0.05016343864931126
aF-0.11936784708841926
aF0.0035092596093147365
aF0.09776673569168953
aF0.07829916819811907
aF0.17982903800874736
aF0.011935480692370373
aF-0.10976722993946611
aF0.06971263408957397
aF0.10728897342094815
aF-0.0578323642946914
aF-0.0752256290882554
aF-0.10467037689804017
aF0.03962318574766076
aF-0.1892962626677948
aF0.1376104624980348
aF0.09554565760187969
aF0.06368632781340437
aF-0.0064197318723382595
aF0.13462750843269536
aF0.2362879239183089
aF-0.060640491196817345
aF-0.13709864085680668
aF-0.2852777091221904
aF0.10501406101829115
aF-0.13687503936091772
aF0.08942905130999217
aF0.10357164601702319
aF-0.004624243472823951
aF-0.06330095364607843
aF-0.10696487003960609
aF0.012943853408923432
aF-0.07904153621603256
aF0.24304665348851034
aF0.15184424264939292
aF0.26413659137532414
aF-0.29337749721737516
aF0.16742425277458123
aF0.35186370347016227
aF-0.21898698929857974
aF0.05382180433288278
aF-0.0016779033077381788
aF0.15066501025428933
aF0.028837281290323195
aF0.01870592863163124
aF0.023450595148347474
aF-0.15035952307414732
aF0.34253519417161793
aF-0.00655805098395706
aF0.16228875834850146
aF-0.286872974701552
aF-0.05653660985474971
aF-0.18397508780242153
aF-0.09131805093743568
aF0.1890190196081572
aF0.24620130448992403
aF0.115117117765211
aF0.09761308841089054
aF-0.0852332913720088
aF0.03896779845694471
aa(lp40
F0.016204442966292566
aF0.40051976045406973
aF0.10039834414079182
aF-0.11139301525330449
aF-0.4580814807538285
aF0.30864087303567567
aF0.1170689509241759
aF-0.4093031381532187
aF-0.001561134001560246
aF0.22294797860762644
aF0.2203547549359649
aF-0.040836079656743865
aF0.2806070325387845
aF0.5117723511691373
aF0.16378470218834398
aF0.27529943384042815
aF-0.11617054539690934
aF-0.03154222654444611
aF-0.1823242346219727
aF-0.054614634458546384
aF0.23999939331418207
aF-0.1381964729147056
aF-0.28078532383087146
aF-0.16343722510021969
aF-0.11545995046391501
aF-0.25283794662780495
aF0.01382436973015935
aF0.08565266163990834
aF0.44869290290552616
aF0.10175158727072818
aF0.07488859172145529
aF-0.030948625340040774
aF0.37676042800213677
aF-0.0341718942295003
aF0.13503818217205443
aF-0.930784625935984
aF-0.06775400700920606
aF0.2524530439318268
aF0.07921819694727726
aF0.19524575303571282
aF-0.488381415536924
aF0.09467139787336916
aF-0.6406126957688548
aF0.44242441408288186
aF0.07955706855972705
aF0.04114512769753747
aF-0.17418275753594645
aF-0.019094745472191463
aF0.10744978901776026
aF-0.11436000716758474
aF-0.12526562134790872
aF-0.27301345486812445
aF-0.2765030653369119
aF-0.010439433091676883
aF-0.020349927153737204
aF0.015671275741434825
aF0.5238143729975114
aF-0.5915297221288501
aF0.33493891169494483
aF0.022523389962793794
aF-0.21601592653050083
aF-0.27858976699310795
aF-0.18751167648593678
aF-0.1536828609649824
aF-0.016156531365352018
aF-0.4169153364990286
aF0.008931123733317874
aF0.23811115413533615
aF-0.01875375282263861
aF0.018939812387434245
aF-0.32470837925926077
aF-0.415151988264433
aF0.2595364445698263
aF0.41043099881353706
aF0.6980427732709775
aF-0.2752475080733954
aF-0.45294458442318336
aF0.022268765731998864
aF0.17238369832206343
aF-0.4220669521384691
aF0.18410855490202194
aF-0.4061189083862996
aF0.2277630967936154
aF-0.292906156528587
aF-0.14373234052408124
aF0.10326847016866743
aF-0.37564711633816594
aF0.5708784612533305
aF-0.2600488652707484
aF0.10833366224106068
aF-0.5526783804371015
aF0.014123317647766042
aF-0.26271514042435407
aF0.23533955279063723
aF-0.2079212781022872
aF0.5684023593481689
aF-0.13622255651245568
aF-0.037086639858221165
aF0.05841367293728599
aF-0.15967916019816208
aa(lp41
F0.05356792836792532
aF0.15443398398570302
aF-0.07392270540487418
aF-0.0750624198009202
aF-0.4304770772714498
aF-0.021336616835069433
aF0.20108937610220082
aF0.33945183544719354
aF-0.21944748527246294
aF0.5427684830230234
aF0.5033648916934328
aF-0.24510841284485757
aF-0.44666997882984244
aF-0.11778576915130377
aF0.28305805740567397
aF0.23792115588596494
aF-0.17681803129958476
aF-0.23809527660576071
aF0.04030174924147583
aF0.2710438314991154
aF-0.537060104969476
aF0.17426133355940648
aF0.11309108095038213
aF0.1579552560147452
aF-0.027381714998744592
aF-0.05409455598478277
aF0.5337358415914474
aF0.22900361773570016
aF0.28574436283953997
aF0.48944560344867455
aF0.3577558145167316
aF-0.5741920854728758
aF-0.09633015869134869
aF-0.04723592827109645
aF-0.4644363378544931
aF0.049157506755150605
aF0.148653796384186
aF0.010937836821091515
aF0.16841681567209443
aF-0.07102695821611943
aF0.02843610624450997
aF-0.10156996810196545
aF-0.40450794660113376
aF0.016615796538840412
aF0.0350896222119345
aF0.33334836809429713
aF0.1436365907766853
aF0.3588828533921423
aF0.22974556588104664
aF0.10444139048116753
aF-0.009965289163476372
aF-0.5032877874463283
aF0.2627937653877646
aF-0.13505556280591563
aF0.2396421193634412
aF0.3007250592137821
aF0.17202018123403606
aF0.1872647969796976
aF0.08144416917494549
aF-0.27392844528886423
aF-0.42783006021063336
aF-0.0991111928607698
aF0.0028027705730336934
aF0.5346734841377857
aF0.06622657381314358
aF-0.14677224424653867
aF-0.12483368694241252
aF0.24387031250374971
aF0.4118647764019943
aF0.037060512115629704
aF-0.23647871613642502
aF-0.05203190770309478
aF-0.10001408182850784
aF-0.04414204951599354
aF0.5931356223965495
aF-0.06859646189265542
aF0.11476078687277515
aF0.1723967712835191
aF0.1368891003374891
aF-0.04951846391238125
aF-0.19539581709281575
aF-0.415769202121491
aF0.08404063329634182
aF0.11170646024811517
aF-0.21146704626723792
aF-0.11709364083531415
aF-0.061154143775913807
aF0.018099795430996497
aF-0.702703279523761
aF0.4564678242697054
aF-0.10945192869641279
aF0.05336701067729678
aF-0.26871588499340676
aF-0.2127525349454729
aF0.1966607958178938
aF-0.25930524429375335
aF0.07031940699850475
aF-0.038568479695410086
aF0.3918640776344368
aF-0.018540831140741128
aa(lp42
F0.3124408274752974
aF-0.31723813485517743
aF-0.1566378311831292
aF0.5078408600113329
aF0.40409528779900306
aF-0.39902632185006887
aF0.050692731700300336
aF0.28716454636315203
aF-0.22878210275956906
aF0.15955201147446088
aF0.14675604364089853
aF-0.0599849500797828
aF-0.6813181781268567
aF-0.5710741950974578
aF-0.03235109826053367
aF-0.08408733831437006
aF-0.3635733682566767
aF-0.3992828421452612
aF0.08481613679844398
aF0.6285966034957703
aF-0.5525289882990607
aF0.5821747170037522
aF-0.12861872364193536
aF-0.026829079937587277
aF-0.0959989142151985
aF0.07057675450118328
aF-0.1181293768215205
aF0.29416279287047686
aF-0.5994023653592937
aF0.06278633615960995
aF-0.1952180565802086
aF-0.21366729642994015
aF-0.43322025716450246
aF0.1980274364058584
aF-0.3153720712199418
aF0.39806018721922165
aF0.23089270434745032
aF-0.3009239540734773
aF0.41379553024487253
aF-0.22956978413768234
aF-0.11472372806733948
aF0.05220536583997787
aF0.557831126760461
aF-0.5091252141786838
aF-0.081993978105449
aF0.23743788297550844
aF-0.0027581878768646807
aF-0.08684405901297496
aF0.019288660541078886
aF0.2642985479979451
aF-0.29747433337498413
aF-0.14861285536785288
aF0.15325965309941894
aF-0.28668137846097963
aF0.31906317106357535
aF0.351343251793949
aF-0.25155871235204214
aF0.9486265826110625
aF0.031701333139030174
aF-0.4363296698427459
aF0.318665105123333
aF0.19536326472503465
aF0.10092987960432614
aF0.42407662731799933
aF0.2342632414343746
aF0.30664011161594584
aF-0.35233043141583065
aF-0.19506004703615207
aF0.2562636761644889
aF0.16437543935434468
aF0.04441109940314047
aF0.19578164172188803
aF0.006571653741279205
aF-0.4579974276831851
aF-0.32834628673158983
aF0.47801964491715837
aF0.37040543836818085
aF0.17627829542341747
aF-0.09514228782232433
aF-0.16359226550801959
aF-0.07493421034558848
aF-0.11020410677595867
aF-0.335720829697646
aF0.43572077476689186
aF-0.19417339669303862
aF-0.14853210469970501
aF-0.07596689734443186
aF-0.4214164999334992
aF0.00868227977642999
aF0.5046872337763394
aF-0.06618280194957442
aF-0.02048432743857866
aF-0.013412197172554591
aF-0.3730617101288977
aF0.13275152734521575
aF-0.5867434668669356
aF0.25401429840241785
aF-0.053799682363968974
aF0.3567434852030735
aF-0.08746094005026395
aa(lp43
F0.9126503568358466
aF0.29874913702003225
aF0.5450824847917577
aF0.1178654078890836
aF-0.09937610509585883
aF-0.04274778921465625
aF-0.46248849440264256
aF-0.6112513594436578
aF0.3433988930589622
aF-0.4530405203585675
aF0.06603608364901167
aF-0.35458306963774733
aF0.4633223734146142
aF-0.033600156380647166
aF-0.23194394329275816
aF-0.44905861374944045
aF-0.07269165860396808
aF-0.4400853269239371
aF0.6514808421789412
aF0.02510124620954425
aF-0.3001876721396123
aF-0.22196627604749947
aF-0.5845982647832715
aF0.3975658819298696
aF0.10387616838828014
aF0.14276493359137116
aF-0.4627670656839212
aF-0.13379093333291006
aF-0.17885587701441094
aF-0.1629586470336297
aF-0.2576362025026625
aF-0.3328612847687904
aF-0.3088195069076232
aF0.12693294404031835
aF-0.024351525036195008
aF-0.4079966811418925
aF0.35240522063906266
aF-0.4432191153859633
aF0.8905793541158632
aF-0.09956742777210094
aF-0.08344288012591637
aF0.12689223106176808
aF0.3745625920788934
aF-0.5011317114966598
aF0.26536933657638573
aF0.6581437772171872
aF-0.22513770971966038
aF-0.5541906036491652
aF0.21142803520686768
aF0.2999928565116782
aF-0.16081843571081797
aF-0.6273438129300438
aF-0.18875404493357276
aF-0.6673740011240415
aF0.13061286060697286
aF0.3538012843600709
aF0.22881096020221864
aF-0.27262029111079933
aF0.7623656504512538
aF-1.0143849929889732
aF0.41825826587645826
aF-0.10229461319094123
aF0.11487008515272135
aF-0.015544779800726355
aF0.15310091032050258
aF0.12379264282752052
aF-0.7287783427859535
aF-0.4336623289233229
aF-0.24260383687795944
aF-0.1907529061781093
aF0.3425665632268236
aF-0.2690961680767984
aF0.04583616772762552
aF0.018035028697237623
aF-0.22753105879877636
aF0.417284903646328
aF-0.4057832674779163
aF0.20784332290425492
aF-0.20275384042422173
aF-0.3243074978176015
aF0.3219573543168509
aF-0.35055355770393676
aF0.16241522166281677
aF0.28611536017522143
aF-0.3192410275916511
aF-0.017209755431032796
aF0.11388911530647704
aF-0.21804056086220353
aF0.5397438549451103
aF0.595890717538557
aF-0.12741455743954597
aF0.5206314199534735
aF0.1924937194250399
aF-0.44835765863497606
aF0.4112977849767676
aF0.5661908967335874
aF0.03331075051535181
aF0.2390987985539806
aF-0.28356719768735167
aF0.09255783900862534
aa(lp44
F0.3562036278094576
aF-0.08184689554521926
aF0.1732072708392958
aF0.16032409638048578
aF-0.0863896935901371
aF0.10554551424634548
aF-0.10297060458144981
aF-0.11793184340468886
aF0.23109209645463838
aF-0.20954695589333913
aF0.16169236590482017
aF0.13384765339845975
aF0.3326094041195693
aF0.08577241352034583
aF-0.3366090700869382
aF-0.09695164605549729
aF0.08505729413681981
aF-0.008511831209084922
aF0.40820024363216717
aF-0.05656616309277045
aF-0.12693759534229904
aF-0.19180986998527275
aF0.01083573107227483
aF-0.07782761335468437
aF0.10924553251745177
aF-0.13619429208135567
aF-0.16700833099037385
aF-0.12632279767890292
aF-0.12847071871632415
aF0.08259504085296829
aF-0.0504054818129874
aF-0.15306539703795852
aF0.1591334297092866
aF-0.008184249619842026
aF-0.07811024939708688
aF-0.07683181743932847
aF0.28983573309893707
aF0.0399235269956754
aF0.22062929908794157
aF0.0175227888219911
aF-0.08443012760860304
aF0.015004310764131067
aF0.12086681796402483
aF-0.044102056546381455
aF0.07256656108485611
aF0.2196657950783093
aF-0.19103715473197858
aF-0.34790945142399626
aF0.24452738033882246
aF0.048776794534870216
aF0.10807527468643978
aF-0.2854169275505229
aF0.11966911579771503
aF-0.32463312606800354
aF-0.10710547366600731
aF0.18340992674305168
aF0.05268840153153801
aF0.018331475959357076
aF0.22893642139757872
aF-0.30928887228163454
aF0.19265960945392924
aF0.0760343679910375
aF-0.23267978883736065
aF0.05864757094963468
aF-0.01832183895344698
aF-0.027656901691905635
aF-0.36883460244830846
aF-0.30079537455152294
aF-0.09360021749143907
aF-0.12071302965924317
aF-0.018619785951355137
aF0.020318852585258486
aF0.04220607154961037
aF-0.10472211155088679
aF-0.13257620755374702
aF-0.13133672068965807
aF0.10704268150372662
aF-0.07316380707357852
aF-0.05334231292814648
aF-0.010515586554542064
aF-0.10409924266365086
aF-0.07120041740445608
aF-0.022673234273972463
aF0.20122122026257155
aF0.16554073959180268
aF-0.08583415954322896
aF0.11085663177977573
aF-0.30541663072780595
aF0.3490398947527267
aF0.11397916322558585
aF-0.08309251140127115
aF0.23336798487500662
aF0.19324762969094222
aF-0.03640906962870276
aF-0.02065797600341406
aF0.04485890785658337
aF-0.041960495349698056
aF0.13422798309154552
aF-0.15942679041905178
aF0.1835920427737621
aa(lp45
F0.14178598221698155
aF0.06903334207871224
aF0.014338595551371484
aF-0.05101245959093503
aF-0.06578671738631181
aF-0.19042675803588396
aF-0.08636756633226805
aF0.0044278500568623175
aF0.022123813669459185
aF-0.029797688795789708
aF-0.09176698706202936
aF0.03477003203246199
aF-0.18806880861577432
aF-0.20070441819289958
aF-0.16710617533155508
aF-0.11644389834699415
aF0.1913822490163143
aF0.13377437879679954
aF0.16301673561709226
aF-0.10426565105718445
aF0.12871659159375703
aF0.03620864314908132
aF0.017605258357437703
aF0.12879756635082898
aF0.030416961141848716
aF-0.085885964167607
aF-0.12295754193736214
aF0.06505533625862764
aF0.02019281733935929
aF-0.09654209107436106
aF0.06490898467533657
aF0.1327020268289252
aF-0.18012452750162952
aF-0.11736519229365933
aF0.05072438955350802
aF-0.17581961783873726
aF-0.099645735368151
aF-0.08215407508513718
aF0.05650626377146915
aF0.015017010287242926
aF-0.17611487000377812
aF0.030886112142271976
aF-0.11219839360565421
aF0.07183819379976093
aF0.028598128985429634
aF0.05155378213447565
aF0.02765285679410545
aF0.19446687243710997
aF-0.1247487461510874
aF0.07881736858476074
aF0.08129091226912988
aF0.05355645628142919
aF0.1219396630813058
aF0.0187573789082806
aF0.19607960863971705
aF0.09030644182027839
aF-0.013052268167962258
aF0.10095549013849225
aF-0.17572560508365562
aF-0.17132641138150284
aF-0.002995763235981652
aF0.09770672756599356
aF0.003178262827266849
aF0.04786801202243462
aF0.18000222862655416
aF-0.09669102756657891
aF-0.11190286448243186
aF0.03936803911753771
aF0.07911061042708542
aF0.12927789420155392
aF-0.14461703648201357
aF-0.10915783300150156
aF-0.15850038131981753
aF0.003676805020448756
aF-0.07459797175881423
aF-0.02556799156445595
aF0.05447884476010472
aF-0.037630269836437254
aF-0.023065541971920372
aF-0.08699764917292178
aF-0.17628496368930677
aF0.1675056882481894
aF-0.1275783033402851
aF-0.18303350382997216
aF0.16472905401317708
aF0.10242077609879918
aF0.023970024772600292
aF-0.09654983038967052
aF-0.10771958141753807
aF-0.18341698952813454
aF0.057269310394299576
aF-0.04467737223999377
aF0.027814753916900116
aF0.18550759091734467
aF0.0824181665843425
aF-0.10936912734224725
aF-0.05342704119764215
aF0.15017435167766616
aF-0.17044612763234074
aF0.19453335714177208
aa(lp46
F0.019428599021088212
aF0.19292179770372103
aF0.1934049388686623
aF-0.18269934822286024
aF-0.027596342738646654
aF-0.1959282836397443
aF-0.08588583331046562
aF0.022307932408686365
aF-0.019803346759690987
aF-0.001107529694790889
aF0.06508618748620634
aF-0.06756068385630853
aF-0.13118048498723367
aF0.051784101101300835
aF-0.1767220662535901
aF0.1961787822836492
aF0.16108928845852144
aF-0.1152214319791685
aF-0.09347934098501719
aF0.14414605591167376
aF-0.18594576136688765
aF-0.17707126787107855
aF-0.1522873617315055
aF0.011378117032448764
aF0.08242784141497242
aF0.0483065578966865
aF-0.11116206462264946
aF0.18621218255472227
aF0.12188004752854037
aF0.024782200640668557
aF0.0003741930536806621
aF-0.017137494903343774
aF0.10115039969638961
aF-0.06286183248529863
aF-0.0954497026074643
aF-0.19033242550166882
aF-0.03164664305271618
aF0.08430885029050833
aF0.06375449124280691
aF-0.01852100342728408
aF-0.1857525551428544
aF0.05620310254617373
aF0.17464895642150835
aF0.04741903636206727
aF-0.13300512370099166
aF0.1561544023206599
aF-0.02453743212921254
aF-0.15404683167396596
aF0.05113582226986575
aF-0.11065838156232514
aF-0.013280924279762688
aF0.012479780125793056
aF-0.1689337883971333
aF-0.0744661296444007
aF-0.006259698222207758
aF-0.036545463130093166
aF-0.16224459284018042
aF-0.17949752204163763
aF-0.045904286239669405
aF-0.07511824539667553
aF0.14222778658248705
aF0.017370848537693842
aF-0.19507894376572094
aF-0.1389895054418435
aF-0.19037297878924136
aF0.032397373755978696
aF-0.19324764419905605
aF0.05718465387085484
aF-0.11771766087820752
aF0.06420259822075544
aF0.03156507011878167
aF-0.06731584873153781
aF-0.03377684032504988
aF0.12403685207565482
aF-0.1841832098560896
aF-0.026473272983472844
aF0.13311264918313648
aF-0.13792199740012448
aF-0.12266723205009859
aF0.035448959034073156
aF0.14577841979151995
aF0.10793800596940357
aF0.11766370202044031
aF-0.1227893284112644
aF-0.15607131974134983
aF-0.1361135894905124
aF0.042890281676287514
aF0.08876925833981268
aF-0.07342544968815937
aF0.12764479290827732
aF0.03694076960374168
aF0.13221970272066055
aF0.1480836924169372
aF0.03276925121009345
aF-0.11337841043741806
aF-0.16172564670119094
aF0.15411275232572763
aF0.041591584403042045
aF0.036421033848674164
aF-0.06751223653483672
aa(lp47
F-0.15032587823439625
aF0.12396460219545326
aF-0.12371599690295763
aF0.029350037663527437
aF0.10998424993265211
aF0.09646063297131752
aF-0.02026478071121521
aF0.18469029211799162
aF0.13983773329876753
aF0.3807094113140925
aF0.2641765634049808
aF-0.19574562284650301
aF0.009119132197464828
aF0.20683925482455118
aF-0.0967872718867915
aF0.11305144239533321
aF-0.21029453455072272
aF0.21734465210093515
aF-0.03332774793277276
aF-0.02507909342855199
aF-0.13553683434350192
aF0.16484222881221583
aF-0.16515928888151424
aF0.14922953531805286
aF0.20594020551851577
aF-0.009169519701569888
aF0.21967177733197096
aF0.32325997927667766
aF0.07524176653218968
aF0.16814850560021324
aF0.49634201800848443
aF0.1424132736569091
aF0.006865201031140763
aF0.0784962831550759
aF0.007898736545397123
aF-0.29112984235890416
aF-0.15192166298579954
aF-0.18101888802227314
aF-0.033143090702695034
aF0.17216613745838652
aF-0.15387224716013112
aF-0.22670505115244513
aF-0.34772900653988864
aF-0.07020991051626586
aF0.15548153618196023
aF-0.10326097882660788
aF-0.07241230079176862
aF-0.043412915288841565
aF0.31903575335056467
aF0.1919723744074058
aF-0.23470083546209872
aF-0.09673393656935932
aF0.03729767645406017
aF0.019360269000730915
aF0.01655862709275768
aF0.19820104154358759
aF0.23519800004603608
aF0.020738789761725863
aF0.10650117695707222
aF-0.09009647525482896
aF-0.08505670422227837
aF0.20459996411151204
aF-0.018511612842410256
aF-0.04756910584212688
aF-0.16122882250228807
aF-0.10052192631307988
aF-0.07583168970377677
aF0.07965262776378906
aF0.04031689525981406
aF-0.08995819586733296
aF-0.10841393357432523
aF-0.2615623442474109
aF-0.12864537122015568
aF0.19278954637813123
aF0.2960650034462572
aF-0.13734650289704864
aF-0.09436963925521964
aF0.07569807484540764
aF0.28949402145049935
aF-0.2859165431621298
aF-0.3274978506534262
aF-0.03942613554456468
aF0.04203902892046518
aF-0.1750778895063006
aF0.0700471697066357
aF0.04767808997840295
aF-0.09707536982829186
aF0.14473721488244856
aF0.017842805434190742
aF-0.04450498296604205
aF-0.11536350732186877
aF-0.2566803558691848
aF0.0015401219807983806
aF0.05883595187464824
aF-0.044236274512117646
aF0.19339059701008068
aF-0.036812196650500104
aF0.10178092215010287
aF0.021145244185285184
aF-0.08667020576820164
aa(lp48
F-0.06384101109628285
aF0.05097428329746647
aF0.03332133572520434
aF-0.369862537303541
aF-0.2549701770993591
aF0.4400429616460967
aF0.05849666645649374
aF-0.0802055980437225
aF-0.06049123009484111
aF0.7967730276058836
aF0.2224013077104436
aF0.07606844771160684
aF0.15357018705085415
aF0.20153238886463845
aF-0.039379483673653924
aF-0.08449988435076287
aF0.006541961104330071
aF0.31360958630810926
aF0.14294380786145955
aF-0.059866345548324644
aF-0.18713131243719275
aF-0.15542637167051523
aF0.05219965042753298
aF-0.19294674721397911
aF-0.27481507052397663
aF-0.04729412579608243
aF0.38846032747103776
aF0.3169765110853261
aF0.5803297309277196
aF0.4442895636158196
aF0.2943052950537376
aF-0.11408381434586452
aF-0.00046062361462333715
aF-0.266276684302239
aF-0.10464039345913574
aF-0.39780865689222966
aF0.17076664889900403
aF0.3656731633445632
aF-0.21259996757427987
aF-0.100584466107445
aF-0.347767005739638
aF0.10419234078202119
aF-0.862800877812691
aF0.2322621760692299
aF0.09855001850630604
aF-0.111617000740689
aF-0.1350431270983548
aF0.14228005406389915
aF0.13804900738903605
aF-0.028625132028908293
aF0.21457382078406273
aF-0.5148521063926371
aF0.04557985610468275
aF0.2198775589825874
aF-0.02563454348083896
aF0.2622982066917286
aF0.7769597813398016
aF-0.3287513558983156
aF-0.23444239059779337
aF0.04814156850746378
aF-0.5276650913791482
aF-0.299833710578308
aF-0.2640131038076355
aF0.13200017461523197
aF-0.03852255892804477
aF-0.1994349801185919
aF0.28285600281118584
aF0.4345354587702008
aF0.1918344275307018
aF-0.288383714563824
aF-0.19936653822104386
aF-0.5531832453679404
aF-0.17537232926274834
aF0.43206662254267153
aF0.8924116474893773
aF-0.22554157031085847
aF-0.06775200911087584
aF0.44608851903221247
aF0.2499416872220113
aF-0.17255043271775042
aF-0.2426425934806119
aF-0.5951327978946898
aF0.27797823981586534
aF-0.6478386832646198
aF0.20985444396144473
aF-0.2087680602368794
aF-0.3041390884545809
aF0.1583974328528358
aF-0.3725975775308601
aF0.2833520561605793
aF-0.5187469343665372
aF-0.04360202590271706
aF0.013309252879824953
aF-0.17092874866289817
aF-0.12179678841278888
aF0.5676740226414341
aF-0.4191544461860895
aF0.00031435706636610144
aF0.21701107267264544
aF-0.22806098915822123
aa(lp49
F-0.17663786807605764
aF0.0642383727273563
aF0.10063596151184681
aF0.10431887332247043
aF-0.5006142357119396
aF-0.009568691979569376
aF0.39090555872378213
aF0.007290632453658088
aF-0.4970696761668346
aF0.6674828950567261
aF-0.06705082130777275
aF-0.31292379961944383
aF-0.4406364197023938
aF-0.014095823653400525
aF0.358814377304711
aF-0.07691670388849717
aF0.03299784741278721
aF0.30429685735776046
aF-0.2229194720763664
aF0.18878280178391693
aF-0.06820551344662866
aF-0.12208551626483873
aF0.0015784893703794777
aF0.21331377278190786
aF-0.4011693904171724
aF-0.04327663594041018
aF-0.07367591618565045
aF-0.2990102039270536
aF-0.14868593359062526
aF0.22737932988638843
aF-0.2239142680393965
aF-0.3841161741619303
aF0.14254752750932492
aF0.0341647172833671
aF-0.6567529302995202
aF0.1386889038822572
aF0.3215260558131329
aF0.34655827692235275
aF-0.1567652682867285
aF-0.002663021803657289
aF0.17335040044634661
aF0.3434052584040567
aF-0.4236105096797564
aF0.006664671485536546
aF-0.11152248731236299
aF0.36700298408530374
aF0.03348197841879229
aF0.3241334496871549
aF-0.23707660225075486
aF-0.31213974187330523
aF0.0057087700983053085
aF-0.52383798482434
aF0.22750519799502295
aF-0.700458495989889
aF0.35087024270874456
aF0.5535749782008224
aF0.5564452257190857
aF-0.42465640839804353
aF0.15891027316116252
aF0.0013287279086103853
aF-0.5306252354387231
aF-0.5383445195246672
aF0.11703470761417159
aF0.36109416125076826
aF0.23691633725499853
aF0.40662949076176674
aF-0.09036584935165325
aF0.18234285007604797
aF0.3170100995243838
aF-0.5251303353563177
aF-0.35214940612899936
aF-0.43088015912549876
aF0.2574103915516047
aF0.005795733010138471
aF0.5683685122451936
aF0.4416298101515321
aF0.44854684146646095
aF-0.00960766180487995
aF-0.07772755176363565
aF-0.24706224573759014
aF0.18625074893039809
aF-0.4531157197852251
aF0.20423397260524156
aF-0.23575899100722517
aF-0.2836403192730425
aF-0.6526830503845563
aF-0.3785125527516599
aF-0.21235775830000586
aF-0.33471520368349233
aF0.36200013319763236
aF0.019446469244313733
aF-0.12318083790462302
aF-0.17085927201622872
aF-0.14832555060291142
aF0.35624381391592186
aF0.114516058280628
aF-0.7927792349837818
aF0.1421958497559683
aF-0.05940459288360197
aF-0.23663675430098458
aa(lp50
F-0.19526715011879528
aF-0.19639877620028223
aF-0.24786705695784783
aF0.12160707227329733
aF-0.06944821190589778
aF-0.3746377043839542
aF0.05361413989555841
aF-0.017486505781650563
aF-0.11477876958013478
aF0.15051954929926845
aF-0.051374787197054086
aF-0.010887351399618255
aF-0.3345997390755608
aF-0.17743183125032347
aF-0.017301191998906187
aF0.044917765342339315
aF0.07304509452102159
aF0.16942970180872496
aF-0.09340817796622108
aF0.35565183034404796
aF0.2942903910792709
aF0.28596361456034064
aF0.13781488189432475
aF-0.04062312337269228
aF-0.4710331582730586
aF-0.15670322310116283
aF-0.4964448693029014
aF-0.11524444413565559
aF-0.3438735435359543
aF-0.07897049083142198
aF-0.43338523061989576
aF-0.17996662699701677
aF0.03277521786297331
aF-0.23442462568803235
aF-0.43685098828765895
aF0.2958718537020052
aF0.277122199462123
aF0.420524150982624
aF-0.1709685892437833
aF-0.018563676768851733
aF0.40303361505872753
aF0.04544130779617846
aF0.08198691010726605
aF-0.3258568064687373
aF-0.23518426704351936
aF-0.018698787724620896
aF-0.17039488169711933
aF0.2291253928629623
aF-0.5094150915879259
aF-0.11575085624761985
aF0.22230911362114847
aF-0.07690639649371761
aF-0.12524431928934138
aF-0.48618698243227226
aF0.15064220360592417
aF0.35765881591483245
aF-0.013237373098111927
aF0.04740763594629771
aF-0.27431985598854475
aF-0.037888447414214786
aF-0.1185495301394106
aF-0.2610226721332928
aF0.0894444463146973
aF0.31544019599475925
aF0.08814481757468605
aF0.3591089156118949
aF0.05889738651732977
aF0.09003995061560473
aF0.05944659008185719
aF-0.3442799748885765
aF0.03503185936526348
aF-0.125747075307104
aF0.03618799132915927
aF-0.010428701604711689
aF0.11621385720228124
aF0.43612404985123115
aF0.10082791497148429
aF0.21518779188876475
aF-0.10254138085448937
aF-0.11317994671662933
aF0.35359825464291356
aF-0.19333683950807318
aF-0.1642330330421012
aF-0.09268490066745456
aF-0.22668824324196934
aF-0.15578480223685667
aF-0.11030305892883129
aF-0.35002104967783254
aF-0.06558628039569886
aF0.3612985449940915
aF0.0034659285328344194
aF0.11126566675324977
aF-0.2796973979060978
aF0.08960379689466048
aF0.5585989794853154
aF-0.06596428616283416
aF-0.5086233734390028
aF-0.1653000157033183
aF0.07730035038389585
aF0.20027036786597227
aa(lp51
F0.6244076193223204
aF0.17899823190896094
aF0.3199314711878673
aF0.2874269951416733
aF-0.08975827373207247
aF-0.17815986378713436
aF-0.3830806279044879
aF-0.17331419545106125
aF0.048833238916945756
aF0.07972852950719346
aF-0.050682273981267185
aF0.34636354253400037
aF0.2307812744220517
aF0.08110287631436157
aF-0.1841345959994974
aF-0.1603438926366827
aF-0.07660924118173802
aF-0.026957935506231902
aF0.6257656962245316
aF0.026749483105631938
aF-0.15676255899996344
aF0.024833343479445765
aF-0.08612657760400333
aF-0.059480538649601906
aF-0.10419523630443207
aF-0.36170580233938604
aF-0.11448248967234594
aF0.20479771938350882
aF-0.1640429688279879
aF0.08093236523122331
aF-0.07860815296331056
aF-0.10044995450653936
aF0.24423209839184654
aF-0.15039147966136637
aF0.02351575072355147
aF-0.3441901256315445
aF0.07698247945989863
aF0.29495293858871824
aF0.3452003427247804
aF-0.08544209659509473
aF-0.11248505985990263
aF-0.16094087880506452
aF-0.06849535138917447
aF-0.40699105275626996
aF0.278998042149226
aF0.36030351770246616
aF-0.4135923922465536
aF-0.18122997006564287
aF0.2050326960343362
aF0.42266566171864256
aF-0.0403792290656611
aF-0.22164093615361896
aF-0.27023956258470366
aF-0.49418864442781946
aF0.15369173328037453
aF0.5502210238585012
aF0.2759950207794158
aF0.33573481815440837
aF-0.029257243664805907
aF-0.5663465341316307
aF-0.1705742566927191
aF0.08378498189037677
aF-0.06286868665704304
aF0.11640282392467927
aF0.2007146250607471
aF-0.21921602346332555
aF-0.40450509133069124
aF-0.014419935856813004
aF-0.05060458779693334
aF-0.280274722964074
aF0.45776252391805455
aF-0.5847152367692888
aF-0.08342270370564182
aF0.18947823918804144
aF0.14001239340891045
aF-0.14845054216437506
aF-0.3857252702448092
aF-0.0858413262726643
aF-0.24790158934961082
aF0.15790598069509107
aF-0.2797928066191669
aF-0.20316035540581043
aF-0.2577019636211206
aF-0.5336803458806137
aF0.012311701019430707
aF0.005705127574359941
aF0.034371978989533376
aF-0.29077515045805147
aF0.14444414744202272
aF0.4060382491801405
aF-0.40069169669553634
aF0.45615104495277176
aF0.25534225949837197
aF-0.27208145419361557
aF0.3467129578206892
aF0.6362252132961117
aF0.2686147677845489
aF0.02417680397241097
aF-0.21157736686633252
aF-0.08815175740461881
aa(lp52
F0.6198790774759285
aF0.04844505333560888
aF-0.021307777526997248
aF-0.13548224297281514
aF-0.05471534262978421
aF-0.015431634898759214
aF-0.3454732261550576
aF-0.23654223386847603
aF-0.09060531997298873
aF0.15957025719129098
aF0.11430156881987182
aF0.3632084318147636
aF0.19831728874814714
aF0.271285764955793
aF-0.14152703560136543
aF-0.5033906846132916
aF0.21165668866573642
aF-0.21331959892146835
aF0.566960098374613
aF-0.24306292893628778
aF-0.26449720687957906
aF-0.09805809513945742
aF-0.056767975597555455
aF0.02208773606498007
aF-0.0765908991867245
aF0.03591813189821926
aF0.02963193650542662
aF0.32644558293322745
aF0.21017217122546727
aF0.01604769446489414
aF0.14710168706675272
aF-0.2173620195616423
aF-0.1087275402213853
aF0.05830483366591486
aF0.039383206287307335
aF0.035949826977145105
aF0.1582378028850703
aF-0.03223212681167636
aF0.127088138415959
aF-0.2663392068151536
aF-0.33912294069851223
aF-0.26473656317802924
aF0.1287413516182651
aF-0.24526728040120271
aF0.1466827090491951
aF-0.13837141766237476
aF-0.022958007752738072
aF-0.1573317785488077
aF0.4141716662708721
aF0.5531055068720264
aF0.24328350257612075
aF0.07824783726156839
aF0.05090399267511915
aF-0.013619756021359638
aF-0.020664244666451306
aF0.26304924049494033
aF-0.05871079703618597
aF0.36495716067775613
aF-0.03575700794555924
aF-0.5087803850938689
aF0.026073312207824426
aF0.014645103143635936
aF-0.1708318972106986
aF0.03127795864163617
aF-0.043431047637416585
aF-0.07342103499926297
aF0.038887002813856
aF0.04251613130346526
aF0.00018366174818445116
aF0.030344772076125924
aF0.3219183675116663
aF-0.15280115548110304
aF-0.06196451986745093
aF0.319610417631698
aF-0.1440502719181416
aF-0.46910690582718606
aF-0.04726669485258282
aF0.03088579772022714
aF-0.29446325550769625
aF-0.00923659796315366
aF-0.2798060021181767
aF-0.29160177388106373
aF-0.059855988912417696
aF-0.4187244179255276
aF0.3135339742879384
aF0.019940220592142247
aF-0.1229905989852806
aF-0.07348060740103221
aF0.3111071785761739
aF0.024001326423646947
aF-0.260239130944898
aF0.3317676661426854
aF0.05036908705970905
aF-0.28816075246818396
aF0.04381317538709459
aF0.5143495390314118
aF0.09266832883930017
aF-0.08607376069136677
aF-0.10036584869219312
aF0.07694187258720964
aa(lp53
F-0.14427538637407025
aF-0.17520232712921285
aF0.07542572352979608
aF-0.12417339697105714
aF0.1251240995444228
aF0.09523846437885726
aF-0.149574840466394
aF0.011091426746734809
aF0.06031964520374601
aF0.1344037140618048
aF-0.1471727876436834
aF0.1396432114203436
aF-0.03026413338546507
aF-0.16987417361669926
aF-0.1035709943679371
aF-0.1944058039151149
aF0.14874081619837506
aF-0.09830065272740272
aF0.07077062363612717
aF0.1365869539624795
aF0.13254848565301408
aF0.050986126674180655
aF-0.027529822320470743
aF-0.14340005965424327
aF0.16121354747494662
aF0.06925201344433977
aF-0.02493216841804591
aF0.033239174288077114
aF0.1755145230417202
aF-0.16852039086665827
aF-0.03853550718437837
aF-0.1917848108890143
aF-0.08476687818864782
aF0.1053964983924857
aF0.11526912441240432
aF0.1700599409513044
aF0.17838727026162768
aF0.09972252247566966
aF-0.08541290711230932
aF0.015650929089152867
aF0.051762462161740276
aF0.00713566287397575
aF-0.11880549338310664
aF-0.014843233783304436
aF-0.17294804503560432
aF-0.18901275088350783
aF0.11146938075749901
aF0.010603773643362745
aF0.1807720288862791
aF-0.04890018058912953
aF-0.11467346115909169
aF-0.12975709013681086
aF-0.1085776398725254
aF0.05593123326041989
aF-0.18078198524611988
aF0.08742126964439204
aF-0.1736648669588269
aF-0.14048023262745168
aF-0.09917212268490527
aF0.15193313240688744
aF-0.15358157653973892
aF-0.0625407640386547
aF0.10428934751324005
aF0.060579050006462805
aF0.19129303464988412
aF0.11755387618722406
aF0.17851555260515806
aF-0.023295561013921492
aF0.09299663197202677
aF-0.13060650759497766
aF-0.10532004560332099
aF0.02257946393570013
aF0.13833880292439996
aF-0.18478925292813225
aF0.17409786010047953
aF0.10946764595875755
aF0.0020149071544586852
aF-0.013982769167156638
aF-0.10140658064892107
aF-0.0981025610867382
aF-0.178652743387456
aF0.07121742449381337
aF0.056576134866844305
aF0.07365064171527837
aF-0.062383025666205336
aF-0.08821605658917012
aF-0.08649699043840155
aF0.11103465682977309
aF-0.20049490278800675
aF-0.04211031228265112
aF-0.04817090180467144
aF0.040418727121812395
aF0.14737681226224306
aF-0.15095396831159028
aF-0.1595698975360606
aF-0.07936109712449947
aF-0.10533074951685094
aF0.03698072090627718
aF0.09835843795422677
aF0.07736543373260042
aa(lp54
F0.16377347363632683
aF-0.11404231660675533
aF0.03226904291367433
aF0.17212758809451645
aF-0.06413481814897912
aF0.18526782810881343
aF0.19571618253333128
aF-0.05655747178648132
aF0.1391623280553902
aF0.04826880249632323
aF-0.09667611661151043
aF-0.03413241303005901
aF0.19970956358672948
aF0.03850272626520507
aF0.13500634696257724
aF-0.17023150787802238
aF-0.16407060476753765
aF-0.14175151928927257
aF0.0632016418618237
aF-0.004135678065818105
aF-0.14406555493548434
aF-0.03813274780509679
aF-0.023326196874565414
aF-0.01000004136919444
aF0.16270138584364963
aF0.04823953399813999
aF0.19048373020759385
aF-0.07871829300577327
aF-0.19941751751332368
aF0.06054344776350201
aF0.04874147196505399
aF0.1255480867266463
aF-0.09208820938501466
aF0.1774467644201036
aF-0.1312255202098741
aF0.08429389759628458
aF0.15605611338281267
aF0.03435317155116055
aF-0.013565560722215514
aF-0.09628792338046109
aF-0.1087665786921424
aF0.04436021109432575
aF0.12491130132615802
aF-0.08829187823724625
aF0.11807665093145592
aF0.15101532544090718
aF-0.03726399249058279
aF-0.16546219712400007
aF0.08775957281966451
aF-0.0326273765045304
aF0.13189172796265963
aF0.11889924741171393
aF0.07332826296708295
aF-0.18144805040210402
aF-0.10373937817713755
aF-0.13594283287582815
aF-0.02845122667570249
aF-0.028686424894207224
aF0.09671894599064401
aF-0.031246079783160796
aF-0.16985859838264689
aF-0.18954092134424566
aF0.19452216772927394
aF0.19174467329243933
aF0.09186766635199167
aF0.05008369139757285
aF-0.08272999011641127
aF0.10346560006273953
aF0.021964894609123098
aF-0.10170591502046462
aF-0.0405888099127886
aF-0.09154511996803216
aF-0.1464809880062955
aF-0.026302645642066608
aF0.18965556857389126
aF0.13801215538435624
aF-0.00356022637113948
aF-0.1555155916293506
aF0.0022342831433900534
aF-0.034233391463062424
aF0.14790730815910896
aF0.08167252409715259
aF0.05289179971582042
aF0.033612447148550106
aF-0.014787818832968036
aF0.027079038440570802
aF-0.09480948601397388
aF0.05206989732651718
aF-0.07934529991945519
aF0.16559667089935054
aF-0.04909336647869891
aF-0.12545808877716258
aF0.13594084527705097
aF0.08081507719473413
aF-0.1916143309710496
aF-0.1380772282529663
aF-0.04821049916535708
aF-0.1347684977476094
aF-0.14597251674354608
aF-0.059446265539434856
aa(lp55
F0.23516370930574476
aF-0.13736140924572204
aF-0.25467994626075846
aF-0.3079997444455978
aF0.14538567835321675
aF0.4526854539776969
aF0.027091901973814888
aF0.07868198265026291
aF-0.1751720113048131
aF0.13868846797912648
aF-0.10569337818658127
aF-0.018178357368248958
aF0.21226162492373674
aF-0.12945493579233586
aF-0.2742314612366828
aF-0.13664861350848045
aF-0.04011383743577374
aF-0.12606228896576183
aF0.19207529230646112
aF-0.45981604683520777
aF0.11803061659665229
aF0.11816627254111474
aF0.11648645844655119
aF-0.10589883607905609
aF0.3198070462471788
aF0.17174023054428458
aF0.5444544046334974
aF0.1421913698517623
aF0.20421052405758475
aF0.2616171985422149
aF0.27949033830213915
aF-0.00655871911704147
aF-0.02131177704403388
aF-0.04746424099475191
aF-0.02502154001104736
aF0.25727000931138555
aF0.029768932099620653
aF0.06939447400118216
aF0.04582228461116823
aF0.03353891632082726
aF-0.2398426382544896
aF-0.15342012740324454
aF-0.35717972645484897
aF-0.01191606648737036
aF0.2890763766403077
aF-0.268831905541879
aF0.24985403346072746
aF0.026556398605828826
aF0.3806729054274639
aF0.4700772372253159
aF-0.04521750985442247
aF-0.04488202743846156
aF-0.10968632394421866
aF0.481765462465132
aF-0.3148321275425415
aF0.09306485082234936
aF0.021138234938882595
aF0.40376497898326896
aF-0.2001012368169314
aF-0.013523712512686855
aF0.14609485286102797
aF0.2392818972067149
aF-0.02896072933675897
aF-0.004669400961831015
aF0.01210144772947559
aF-0.517403857567661
aF0.0399426486951209
aF0.21428288857992792
aF0.07969428927173136
aF-0.08755746010712641
aF-0.18885426323268037
aF0.0926866621954435
aF-0.11081614235765874
aF0.19766014953017824
aF0.14622460838427406
aF-0.35689135978234615
aF0.1988563409211859
aF-0.10208954871960377
aF0.2494365835966173
aF-0.18665580188595063
aF-0.3078890679684247
aF0.1805431564452014
aF0.13946626173801968
aF0.0630288690257154
aF0.2002911407640406
aF-0.007293381556264583
aF-0.074666773127759
aF0.22170588084083684
aF0.09968837847724779
aF0.19286164438086648
aF-0.10522804568790203
aF-0.1309154631086397
aF-0.11832314761976132
aF-0.1620323274816728
aF-0.32604437503626904
aF0.23417673048494958
aF-0.07875911022029354
aF-0.05378362937585164
aF0.26196741528530065
aF0.052833737681379465
aa(lp56
F0.07933753765603965
aF0.0004921672802380005
aF-0.11428966273882266
aF-0.2113269717969983
aF-0.20028189418640213
aF0.5697065599509934
aF0.29754530433838117
aF-0.06306446334778423
aF-0.008035416970548126
aF0.1549426860854815
aF0.07196486830229487
aF-0.07377294749940735
aF0.2092555448878245
aF0.17299459189456684
aF-0.3254806363684994
aF-0.21329116737395637
aF-0.05215514256543719
aF0.014213237310536317
aF0.2676439643645433
aF-0.32377311567912187
aF0.01941312295057446
aF-0.2341899997123461
aF-0.07292902743823647
aF0.0060453428586335406
aF0.08163441428214767
aF-0.2719659441185852
aF0.40504764370608776
aF-0.1325117549122024
aF0.49041847291187474
aF0.4357205260247043
aF0.19153703724103718
aF-0.37547354270365585
aF0.22876236976647682
aF-0.15204275559814706
aF-0.30192707264823926
aF0.091781878481792
aF-0.12810068909663427
aF0.0777400351373802
aF-0.1862207214361109
aF-0.16770384277654307
aF-0.18622032959365165
aF-0.292725688339728
aF-0.46215742892280964
aF0.35874103834556453
aF0.17394839390989886
aF-0.47545570243613894
aF0.29736085199758705
aF-0.030822641674963493
aF0.3799479556378315
aF0.16905153068851422
aF0.04339550628457413
aF-0.00412605636382463
aF0.09080991949841682
aF0.43133247099634614
aF-0.12561679980318038
aF-0.21300564230690608
aF0.2071369512041284
aF-0.1926342710115381
aF-0.25066233473181027
aF0.02114635803477325
aF-0.3624310799892955
aF-0.15385018416308707
aF-0.3161032612817289
aF0.16057723676220145
aF0.01435730792477244
aF-0.26210026267385633
aF0.20837123797653828
aF-0.13117777919563442
aF0.1384419240514941
aF-0.1648513178539784
aF-0.2337737453346745
aF-0.0522962503770312
aF-0.42368676273112355
aF0.07544865549387705
aF0.2037154836552395
aF-0.38022329010483247
aF0.27648631714885485
aF-0.018259345753683435
aF-0.11482237904754615
aF0.12579351519136814
aF-0.3139352463221891
aF0.011189970818170095
aF0.13637116478069006
aF-0.4745956058384102
aF0.4275734725762958
aF0.25524034286238945
aF-0.08487628626545039
aF0.3031706977365846
aF-0.2344708170675548
aF-0.21142481802570762
aF0.0784484579712139
aF-0.03596654974929637
aF-0.04549162374342197
aF-0.14369001437641754
aF-0.47320852854784945
aF0.27817703638467384
aF-0.1377150425147778
aF-0.11988038448087628
aF0.11167036695484786
aF-0.03411880415732044
aa(lp57
F-0.20571682649011958
aF0.22416351054130074
aF0.1211127728682173
aF0.08992803720810023
aF-0.3280770649549798
aF-0.21560347535686405
aF0.15660590174063624
aF-0.42199396951215673
aF-0.19829227670444452
aF0.14676233477327358
aF-0.03720878787273442
aF0.11997916822211924
aF0.28313384178988577
aF-0.38873198522443064
aF-0.03869097224192794
aF-0.13772963742296995
aF0.12166359268534602
aF0.09211897130513774
aF-0.11270552167935728
aF0.0780850237421405
aF0.19294698962504106
aF-0.17517713454461323
aF-0.1305933529364187
aF0.055485784246827485
aF0.04567812379943023
aF-0.5035364045470084
aF-0.30711460267562424
aF-0.37358810165453493
aF-0.11345304134587705
aF-0.2768966429479882
aF-0.4205709661148003
aF-0.3629174794149241
aF0.36867851374920385
aF-0.09027485173177524
aF-0.33396540176353595
aF-0.10987422917457025
aF0.04791288304442578
aF0.37786050930984005
aF0.1262039201209662
aF-0.34718309957784355
aF0.376986983432762
aF0.19332211220474996
aF-0.26183525493468407
aF-0.15918202729832442
aF-0.2819207400949401
aF0.35858338388052835
aF0.1873847801723852
aF-0.12771832610802483
aF-0.28659378517725037
aF-0.3337839063418562
aF0.1300967320137941
aF-0.3371081558661541
aF-0.13073639144836233
aF-0.4768029955536795
aF0.13454095276476513
aF0.15628773190914366
aF-0.14654918999655173
aF-0.3549908870925183
aF0.07796282827398716
aF-0.13609310133053773
aF-0.6371414501082157
aF-0.20107002308477245
aF0.08110101602572564
aF0.16858391121619298
aF-0.21299807981497837
aF-0.06356272761501576
aF0.06764416922359649
aF-0.3408848724260267
aF0.1193550272195634
aF-0.008592187464858934
aF-0.2973616203395938
aF-0.3370175153382375
aF0.025749058490845984
aF0.13295044308894977
aF0.31257253198335216
aF0.13094227638334283
aF0.42867791676242994
aF-0.1272399005024672
aF-0.16234608626478608
aF0.29576500914301224
aF0.34501713686396324
aF0.03802589938900375
aF0.2670102520258581
aF-0.16653250463182073
aF-0.006919158305301133
aF-0.05306935974500518
aF-0.13986841328756544
aF-0.28367609645054903
aF-0.027311455060759226
aF0.055178468092828045
aF0.005373644566651901
aF0.35248004759758267
aF0.30768404861163157
aF0.0903186735534141
aF0.406194730909231
aF-0.014325767760417763
aF-0.3756130153494238
aF0.056056270148172375
aF-0.3990781200690812
aF0.0738742738855292
aa(lp58
F-0.1075993018466839
aF-0.3101268881270447
aF-0.452128139833233
aF0.1795422889505192
aF-0.03489737966491387
aF-0.20264700565032046
aF-0.01255766035913498
aF0.12127953033563846
aF-0.4958444236715926
aF-0.14327047247742214
aF-0.008485980609819841
aF-0.08872376113527326
aF-0.3746727090194113
aF-0.9000802692743859
aF-0.2623756954154748
aF-0.14766642229593524
aF0.1630346478127345
aF-0.3020015580096517
aF-0.31284006492796995
aF-0.1509619420402125
aF0.18627825536320466
aF0.39948215262725995
aF0.10785208103850902
aF-0.09092012159209913
aF0.07044710999724042
aF-0.1705794804039853
aF0.036534819334999635
aF-0.33408018614945234
aF0.09318759004050958
aF0.05807712620672108
aF-0.4598602586695247
aF0.005451785436481996
aF0.2683548993282943
aF-0.10987494577079292
aF-0.5011477598849611
aF0.6421497462782838
aF0.1653316813798643
aF0.06750681539677165
aF-0.3107257972682269
aF-0.24876111871329648
aF0.664706294583622
aF-0.25124453545870445
aF0.11690298412309347
aF0.008752561277698679
aF-0.045941300789742345
aF-0.19448826392492843
aF0.3426077528993
aF0.08375313779655072
aF-0.3604155408525542
aF-0.036991111384288504
aF0.4635222536985505
aF-0.1917802961811868
aF0.2792502846731627
aF-0.08359661158960059
aF-0.09302648818324434
aF-0.26053045882157616
aF-0.5723359072057522
aF0.32957398748565425
aF-0.36545944529028807
aF0.045223145005918626
aF-0.5836340984065415
aF-0.0744786961011066
aF0.15307454414839822
aF0.23598439780542835
aF-0.1850277231112571
aF0.5029726804316611
aF0.12497050576218403
aF-0.1557868588717466
aF0.26388824363616104
aF0.02178571854068431
aF0.0338869609092665
aF0.46372434027259707
aF-0.2147518133030297
aF-0.3240371675914025
aF-0.44532515921160826
aF-0.0888616132320168
aF0.8521556394763199
aF-0.02051762819294766
aF0.20836977958675496
aF0.4649385994165973
aF0.1780025963969729
aF0.2608970508024839
aF-0.11888691073521088
aF0.19248192019158908
aF0.07378061190929526
aF-0.3466884624989895
aF-0.025511547467161087
aF-0.22642542371085947
aF-0.44354335739535405
aF-0.13373303442494183
aF0.6946248409091345
aF-0.08941886176751698
aF-0.02630940341911033
aF0.05994518010966685
aF0.19447822656079086
aF-0.2485917333316627
aF-0.2958645506261045
aF0.18876302054585148
aF-0.2526860134706052
aF0.0005083650323062857
aa(lp59
F0.28347514791834194
aF-0.10022739846313833
aF0.14171920955253153
aF0.20966749690612652
aF0.4775938271184456
aF0.2551505309557462
aF-0.12406091456478201
aF0.04736929923640878
aF-0.17084978219604732
aF0.25781511942369406
aF0.033990995453402596
aF-0.006576548092024682
aF-0.23921863437151047
aF0.0015147276033844247
aF-0.2791542619054801
aF-0.5706836396274154
aF0.1991839417108096
aF0.14369499865525578
aF0.2831746521737634
aF-0.20194790672457744
aF0.06221504276541548
aF-0.2248336033168937
aF0.0633300922365454
aF-0.28616248013043466
aF0.2551740553326292
aF0.026255627271893022
aF0.351398439497235
aF-0.14616088948262537
aF-0.08689849157334505
aF0.23566399770533358
aF0.370570809622681
aF-0.11062936796578889
aF0.060197104708281296
aF0.23611759001289803
aF-0.22367906091537368
aF0.37805245595958786
aF-0.07645836352120489
aF-0.13403528906743817
aF-0.1786523144878341
aF-0.30323771208862793
aF0.3599113016013882
aF-0.19250497486563198
aF-0.1894755736142706
aF-0.09121496936980156
aF0.016103109748915503
aF-0.6043468032410865
aF0.08832211476562585
aF0.14531804569825352
aF-0.1845430487135266
aF0.34962182568974504
aF0.3640283901503244
aF0.23669732075846026
aF0.21682868841569222
aF0.23787739907385394
aF0.22547074828065702
aF-0.11504473585374167
aF-0.09223495976983812
aF0.25070424760382537
aF-0.410636882752228
aF-0.027538827153335624
aF-0.1853041894612493
aF0.0006760032515248106
aF-0.24118462339435973
aF0.3754294528123049
aF0.12030207209899513
aF0.1635427803152992
aF0.19669838642809645
aF0.10712676994024022
aF0.10665743390884509
aF-0.30660194082506537
aF0.32127765858369356
aF0.2040539472051626
aF-0.3111171816038191
aF0.09968886569579023
aF-0.2761313268872214
aF-0.4988033256173046
aF0.29093854470239766
aF0.07972822817315035
aF-0.2921519749701097
aF0.07071973181411845
aF-0.2639187330494941
aF0.09010144405811671
aF-0.19062449310993268
aF-0.4743274613669035
aF0.509213635044392
aF-0.2423115844744707
aF0.215254774273515
aF-0.43466594145684
aF-0.09524935744046314
aF0.2657343628145387
aF0.09059172037087433
aF-0.3551714210774779
aF0.30277692326523875
aF0.013194192661132592
aF-0.12609278010476013
aF-0.012434380825380483
aF-0.45030949864097075
aF-0.1228179244238734
aF0.18112619988706385
aF-0.09611720146051887
aa(lp60
F0.48264708569309306
aF-0.21240991865838044
aF-0.060236939287419036
aF-0.1202980136064024
aF0.13618363457441202
aF0.426353878508699
aF-0.3870619292971608
aF-0.1905769598908396
aF0.015285208474585692
aF0.22123638227735526
aF-0.04171201234406598
aF0.07712774110734676
aF0.2246013945503294
aF0.3267064437677089
aF-0.08460130270394893
aF-0.4945957147265874
aF0.12545492233811836
aF0.27416350559113367
aF0.33600759710440437
aF-0.42780027899161843
aF0.16043438703962243
aF-0.15975571377407527
aF0.13768422862743906
aF-0.08685109660253834
aF-0.06356265199398987
aF0.0036514214533026794
aF0.1115986358830085
aF0.18656625068596894
aF0.07691241809089014
aF0.393865124990052
aF0.41861099309478345
aF0.10350767887292336
aF-0.0742254745221901
aF0.07765977262559198
aF-0.18654497939893389
aF0.20250932945648642
aF-0.042153368741954855
aF0.16210056821677102
aF0.15010436137016014
aF-0.06675436080225812
aF-0.165279629857712
aF-0.15015507052500043
aF-0.10344261906917249
aF-0.12603541462491558
aF0.06996574466119061
aF-0.4400676017758509
aF-0.08687037447282696
aF-0.28858020879607676
aF0.22396578116698024
aF0.31126149184142354
aF-0.018891167408071254
aF0.09444285972965755
aF-0.14843472391974638
aF0.4134357204605494
aF0.07421059803214275
aF-0.05900371109416928
aF0.24860834090765335
aF-0.033766147134765535
aF-0.026398540922014487
aF-0.035239418287509656
aF0.06562999587247484
aF0.34578989394481696
aF-0.3218494194633088
aF0.28292217734178077
aF0.28017522323886795
aF-0.1492165761226713
aF0.2657175171031379
aF0.294116731091099
aF-0.24882546022609808
aF-0.08997302191310944
aF0.004591872697087271
aF0.07155747395748335
aF-0.27819447563707767
aF0.3078696961939508
aF-0.016727685091132153
aF-0.25812678585874305
aF0.04494107000479119
aF0.011940670046427468
aF-0.1427148436939727
aF0.053758994806169254
aF-0.2748563888455283
aF0.08315540978165932
aF0.018934117097381527
aF-0.456290254579335
aF0.5589793569335644
aF0.05109822729209257
aF0.19431595231102144
aF-0.11784545593308626
aF0.30452285257039724
aF0.1503603933863538
aF-0.1283168123626117
aF-0.08289100005980628
aF0.18251320313348118
aF0.07927789317693147
aF-0.15932537390564364
aF0.2206242994220932
aF-0.1432470673733614
aF-0.0009677706107654707
aF0.19352769526323751
aF-0.12446964346068165
aa(lp61
F0.02585398062318442
aF0.047724032477313216
aF0.13250012930010646
aF-0.18129552211648253
aF0.03832391884724523
aF0.0466174756649278
aF0.007392993309882551
aF0.07574226885438423
aF0.1956248781328444
aF-0.1565068165394437
aF0.11172342535652774
aF-0.020299066101520463
aF0.09965987341832816
aF-0.17557071322323076
aF-0.08529673971841896
aF0.13122168105682502
aF-0.027592705808361373
aF0.047924922851068585
aF-0.03776590879819425
aF-0.16879739877022445
aF-0.0642905584178197
aF-0.1702955648785777
aF-0.058011601378174155
aF-0.12427544773345858
aF0.18745443991147942
aF0.08257431431174456
aF-0.18947932529155298
aF0.0005657155429788507
aF-0.1812565020822731
aF0.0844634371341989
aF-0.08281149084945111
aF0.17336332728533416
aF0.15714010857930533
aF-0.14197756222748892
aF-0.16949335035724095
aF0.024222205248838835
aF-0.17254546278004154
aF-0.0061404856862296575
aF-0.02867434071902006
aF-0.14805910302646752
aF0.14586217058426076
aF0.1725537736642293
aF0.16743995021556946
aF0.11188204340152796
aF-0.0778357120095064
aF0.0395809331934634
aF0.15161513324066161
aF-0.15061096926250206
aF0.13196657097138248
aF0.06565913097200993
aF-0.12283575076611486
aF-0.03951429928200159
aF0.16223162421816462
aF-0.1702953167868942
aF0.1577590765150046
aF0.03462954175307628
aF-0.11223724841787464
aF-0.12782041225280016
aF-0.07664657569471665
aF0.11721805479527425
aF-0.17106068954505538
aF-0.18919706708079667
aF0.06881450256799271
aF0.16990454417316486
aF0.1098330031798202
aF-0.134483554456388
aF0.19634705730099977
aF0.17398003255692157
aF-0.1224253347476755
aF0.1706417571420339
aF0.04004053661926865
aF-0.04224980329778094
aF-0.1687450627507726
aF0.02669846189125319
aF0.11941213898591879
aF0.001704940758186918
aF0.06641174410528766
aF-0.12945329494761237
aF-0.07444755803475522
aF-0.07533796450223998
aF-0.12776829607932233
aF0.004315102135426241
aF0.16543612571705374
aF-0.014594234236160297
aF0.18067935426719167
aF0.19468233969771065
aF-0.12180868516678288
aF-0.01621916692277897
aF-0.1430460068865525
aF-0.11926690948374091
aF0.07540640846516655
aF-0.12489025706943174
aF0.18108142895041107
aF0.10855206039788434
aF0.04932102203460148
aF0.05689539963769652
aF0.0496224565472434
aF0.12487407017950714
aF-0.11598314656462608
aF0.0023447333779145207
aa(lp62
F-0.18233729104172602
aF-0.04658773155186866
aF-0.14204584775204382
aF0.049258998045005775
aF0.1901532323691671
aF-0.07334265784851225
aF0.027995678092634212
aF-0.03343377055680561
aF-0.022819957263554628
aF0.19860625665034093
aF0.1979261330648323
aF-0.048241067100016556
aF0.051870168946835216
aF-0.016887325985577864
aF0.11063463516217946
aF0.19821736847459837
aF0.15278704305880406
aF0.03713269477100933
aF0.14100327087592524
aF0.03353981319916014
aF0.10204018021553252
aF0.06410391117649693
aF0.14311179003313795
aF0.09374593249022052
aF0.16038112398759113
aF-0.024357133556035727
aF0.0899097455324089
aF0.03451599658329446
aF0.001015552295387955
aF0.1733722702889196
aF0.141726315597011
aF-0.09946636279153284
aF0.040245346324700504
aF-0.09535235487995147
aF-0.1698420600644162
aF0.09869721699509057
aF-0.03934305943793317
aF-0.022309864395686337
aF-0.18987280912502746
aF0.0995841418652097
aF-0.19023513634638767
aF-0.19999130954737165
aF-0.014539661822232363
aF-0.04496894659144635
aF-0.08158505261103012
aF0.1200920712059543
aF-0.1612843398705936
aF-0.14351567153577183
aF0.16914082786022686
aF-0.022090200029031528
aF0.18628392509990283
aF-0.10591561897815442
aF0.11256508261819675
aF-0.12848940339623466
aF0.13584652446466286
aF-0.15473247206135363
aF0.1539352717947581
aF-0.0669095867200429
aF-0.004179750001034986
aF-0.07064006196049981
aF0.18853153902451303
aF-0.0326086799940683
aF0.014901163198711107
aF0.09074687848720572
aF-0.07200406250603747
aF0.13513139117972775
aF-0.008850066271892151
aF-0.18400609460620698
aF0.18403346950030902
aF0.0007708829113443001
aF0.1319631968441168
aF-0.1703406832662993
aF0.09741141991049425
aF-0.00541843946398982
aF-0.05213118509299156
aF-0.07849211084402
aF0.1758101253326304
aF-0.01578118688884175
aF0.14256844502674434
aF-0.1901634447004114
aF0.14815723605595868
aF0.07295054516193998
aF0.15532276448634383
aF0.010886229540742214
aF0.023741801723618703
aF0.09976893425596507
aF-0.17017529304592413
aF0.19378872116951143
aF0.024250083129688287
aF0.027595662185357042
aF-0.07586352509517201
aF-0.15890579782019174
aF0.17935978478641537
aF-0.026351134747454538
aF0.012847185809103987
aF-0.19391507455266538
aF-0.025323306248547554
aF-0.13024091527868975
aF-0.12907347700542268
aF0.20097056362498913
aa(lp63
F0.326688869539533
aF0.01018699785061612
aF-0.11015572368911163
aF-0.13654543399987223
aF-0.04253527078328252
aF0.22745060427205732
aF-0.01982610194717368
aF-0.11739281610182517
aF-0.04789459604955212
aF-0.31000090991075147
aF0.11977561089430551
aF0.05726530264086642
aF0.01598326693842342
aF-0.25632251804867134
aF-0.3735491286500276
aF-0.045218561024585574
aF-0.17470623275120337
aF-0.19663504400738666
aF-0.0038596514874909
aF-0.2952669117486114
aF0.17547418052495184
aF0.04397613701057463
aF-0.0073648719736652555
aF-0.21644381539881702
aF0.17917437106821915
aF0.09367789999759386
aF0.2294313457177131
aF0.2819018457596377
aF0.18998626827826073
aF0.33318565480515355
aF0.11708501893824662
aF-0.1322215326926255
aF0.09211952716354083
aF-0.03805589538170275
aF0.14090762126782166
aF0.10557491447321098
aF-0.020817482727187194
aF-0.20096024355904477
aF-0.08573274938903469
aF0.0635320118657394
aF0.009654456730210913
aF-0.04389389845114764
aF-0.25787734946825297
aF-0.13155263345047502
aF0.1701349923987123
aF-0.2261344481496478
aF-0.03364406310121997
aF-0.0730039097868244
aF0.06278973123410354
aF0.3413359569973865
aF0.01757085702660176
aF-0.021036571385858602
aF-0.003081346337156774
aF0.05179348618221891
aF-0.22792240190844001
aF-0.15892392033572264
aF0.09129112335545106
aF0.3092234181074335
aF-0.30715117269341835
aF-0.20177672372380195
aF-0.11310360506003837
aF0.1434195994437399
aF-0.021747640114518067
aF0.10911657393613829
aF-0.17474239507659664
aF-0.21060520437569166
aF0.0856780872772614
aF0.04739120471423904
aF-0.3237112971174275
aF-0.0722561933025355
aF-0.0702636879034712
aF-0.05151703223770071
aF-0.2905627247492096
aF-0.011870455466840424
aF-0.1508252817999362
aF-0.27703526193762656
aF0.22582700645596793
aF0.10388493968817177
aF0.24459882712102768
aF0.06207862184346447
aF-0.2046058270479373
aF0.0996807342620015
aF-0.1312678915532891
aF-0.07573018931697247
aF0.08196056918941531
aF0.021461164184368737
aF-0.04996670288722633
aF-0.019571423971601453
aF-0.1295831984847331
aF0.15071526547733446
aF-0.14925780225843777
aF-0.1533053686002052
aF0.05788369606340698
aF-0.1259275397802191
aF-0.1301908335788503
aF0.389289834307422
aF0.12279054605160672
aF0.21820139832019145
aF0.20045037023496223
aF0.2673629890010615
aa(lp64
F0.13203002260712554
aF0.37096739951714414
aF0.05922728152018621
aF-0.5446806189258905
aF-0.6015977555268349
aF0.3464222221793815
aF0.2694868918123425
aF-0.41119088817236543
aF0.32825699814325743
aF-0.5737013439315601
aF-0.12807274543574737
aF-0.1722578168081635
aF0.515264768178921
aF-0.35633138301192413
aF-0.37652612770846017
aF0.24239410365287228
aF0.09281213434682777
aF-0.5069089626273918
aF0.09324088634796324
aF-0.7079480010950442
aF-0.04797834528652681
aF0.02621125315241084
aF-0.25025107356653414
aF0.20749569446975427
aF0.9182689358954156
aF0.11338743688425872
aF0.10577423604358982
aF0.11822694856184959
aF0.6951972148486709
aF0.05845150939208729
aF-0.1738158639406991
aF-0.3681207781898423
aF-0.027276185751726658
aF0.06462156708944662
aF-0.06738024257766788
aF-0.37808609501021523
aF-0.21427753218480752
aF-0.2894856890873009
aF-0.06581564718797016
aF-0.0421362739364482
aF-0.26170753827909704
aF-0.14405252401933608
aF-0.1882383697768302
aF0.4116852741726294
aF0.22509613840872858
aF0.3045364613563961
aF0.6499789091884699
aF-0.2955164038319391
aF0.4248091230167417
aF-0.1843704834317747
aF0.10458054461394546
aF-0.10135662833769986
aF-0.018833363134159935
aF0.47410245418650765
aF-0.8049884324672306
aF-0.5693304826072207
aF-0.45186043984593494
aF-0.3008504302620258
aF0.40568612239365076
aF-0.12603820385390685
aF-0.14625200998986526
aF0.03467810145524592
aF-0.11753789584031368
aF-0.09450319156080347
aF-0.2957085554789493
aF-0.5489849139514432
aF-0.16956904694286054
aF-0.5051909968367038
aF-0.09437999198684949
aF0.3723134236364768
aF-0.37951968151899335
aF0.37731362917149086
aF-0.6315550085390487
aF0.15376228224687483
aF-0.1353224263311365
aF-0.2565852444447966
aF0.10509566196784856
aF-0.22130384890129798
aF0.06404358360352552
aF0.07259588132287821
aF-0.02380789727534474
aF0.26024807661273325
aF0.3971208201320819
aF0.3990969227576486
aF-0.038085373261836086
aF0.2644207455649815
aF0.37600425157942335
aF0.3049497942334313
aF-0.22781241925216592
aF-0.4729153928656784
aF0.40952464279374884
aF0.23115229061968134
aF0.5502856951388965
aF0.14906185860135812
aF-0.19242798076171314
aF-0.22146855077571875
aF0.3783261014686065
aF0.36225000998367846
aF-0.37992299028999454
aF0.25623419918134116
aa(lp65
F-0.07139243108178284
aF0.17008228437753006
aF-0.623283857981347
aF0.03714688282985508
aF-0.10897404050970338
aF-0.22359007015878127
aF0.20417623351101982
aF-0.07143632019324565
aF-0.2632089039916961
aF-0.1820674857492864
aF0.18628267692841183
aF0.14533775392354384
aF0.21847232989835416
aF-0.8758893854640164
aF0.015948876121126537
aF0.26137545935727935
aF-0.3893752953678063
aF-0.6565716618601328
aF0.10359895263234149
aF-0.14955220527594482
aF-0.14598011087082643
aF0.22051517623456704
aF0.2742458295299208
aF0.1708729731353313
aF0.3091200058080905
aF-0.44822606821774824
aF0.19590453940278502
aF0.2589528778963172
aF0.35089710709575417
aF-0.17810420212392267
aF-0.13304216145371162
aF-0.03505810210572778
aF0.4513439824243265
aF-0.34921246351561686
aF0.49129972649296005
aF-0.31724104547129717
aF-0.024818935228014854
aF0.4680016018987659
aF-0.16028067922776582
aF-0.2837280191728715
aF-0.3906909071037832
aF-0.5064980779127857
aF0.14613630088917345
aF-0.02847135512229452
aF0.09828897715675379
aF0.5458800535926027
aF0.3570060263611112
aF0.254217407759143
aF0.05017229526802496
aF0.39890457720277017
aF0.13230477966721524
aF-0.3427354749579819
aF0.03408576359592633
aF0.09855090854111538
aF-0.25642317615145926
aF0.13615684324021884
aF-0.48178704157069974
aF0.7333788770434034
aF-0.4968436580537384
aF0.09276442720339181
aF-0.6084034079409317
aF0.1380243435752121
aF-0.031549633190380795
aF0.08420132660377483
aF-0.5608000203298561
aF-0.2569515666643652
aF-0.06842627901040149
aF-0.4707981895726676
aF-0.21944191163317983
aF0.49161501603120955
aF0.015437026040391799
aF-0.15255087653053181
aF-0.48108648389620995
aF0.1204085417189017
aF-0.16865407261913573
aF-0.5614246445087081
aF0.047141011541678886
aF-0.06158005122856287
aF0.22770967421748722
aF0.23408154067366027
aF-0.20242490517604106
aF-0.02096719499437111
aF0.047320646559442375
aF-0.009982824226223841
aF-0.32393236324575836
aF0.5936162807345884
aF0.021834623610683
aF0.6510436748229983
aF-0.31537790984202524
aF-0.09562724848061413
aF0.11922630870469357
aF0.6879562019652684
aF0.26348258395123036
aF0.4892844285163338
aF0.2964896055786953
aF-0.05013713303512909
aF0.7023032196397995
aF0.1985538310672829
aF0.04109977271301269
aF0.13498159559562498
aa(lp66
F0.09609668073223047
aF-0.08643366166706178
aF-0.6188440430221583
aF-0.2179849169684156
aF-0.27587903637320393
aF0.10862137917584357
aF-0.06751604503286444
aF0.12867053138474419
aF-0.3061721576996434
aF0.14226771398569468
aF0.07744190537307974
aF0.13413788235372634
aF-0.03222451650866718
aF-0.6398276224219804
aF-0.1471234045359645
aF0.2868306877270603
aF-0.25648890256416607
aF-0.3164198894455759
aF0.09408598402321737
aF-0.33026123547653174
aF-0.16676088710818007
aF0.45025374540624363
aF0.10057969779304628
aF-0.05254609219182728
aF0.30502165266714404
aF-0.011913119947954175
aF0.19667200156042008
aF0.238241167278626
aF0.09165316790271526
aF0.3760662928244277
aF-0.1860621646231864
aF-0.0342338270972135
aF-0.1267588809786866
aF-0.036894153681158746
aF-0.34506659462973177
aF0.4661451621166119
aF0.006163849800416339
aF0.08299945311182393
aF0.0894203426518079
aF-0.2532007304078154
aF0.2581641618028674
aF-0.34391340403861387
aF-0.1485533210229817
aF-0.24305274945460784
aF-0.06895993739909512
aF0.03980692122614605
aF0.37986678907772314
aF0.3131621893588975
aF-0.12234707195207167
aF0.4570430884023862
aF0.3961099537580613
aF-0.3101345017783342
aF-0.08923714009477783
aF-0.23725699239164477
aF0.2917206704668761
aF0.1190485517151448
aF-0.09548640818142265
aF0.5962339940210248
aF-0.5362325622475018
aF-0.06286882010023595
aF-0.31477900752551263
aF0.10471170215872906
aF-0.0787292464628722
aF0.12682481772253298
aF-0.05491346044605158
aF0.12144225542343212
aF-0.1157575700376744
aF0.011590429338050252
aF0.12235204284893417
aF-0.06514715233732227
aF0.002130162493137665
aF-0.09357171772745812
aF-0.42757796187782426
aF-0.200596026799866
aF0.20163424605369457
aF-0.3141350357387265
aF0.45670266737680937
aF-0.12924541206167534
aF0.4090833988614849
aF0.20202258392702716
aF-0.13702824940376213
aF-0.00990002230671538
aF0.03563209628475516
aF0.1838868617332612
aF-0.22012589323065557
aF-0.26211886887262364
aF-0.015329084406525658
aF0.10928163550337269
aF-0.5328762965807294
aF0.24420382786864817
aF0.30678212713526426
aF-0.07828121292716704
aF-0.07355516334516485
aF-0.15001777260493568
aF0.31448933705698395
aF0.08278691441672476
aF-0.14096197855216624
aF0.18872312390808627
aF0.009733131100728992
aF0.3131835265479028
aa(lp67
F0.2984293773165753
aF-0.20303074305571686
aF0.16439552485212588
aF-0.3155857162078141
aF-0.3331648115935605
aF0.5459456692708609
aF-0.22896967091272769
aF0.1157906879813112
aF-0.014526531516390115
aF0.0875380773115967
aF-0.37232926173508085
aF-0.23343488354387287
aF-0.11736493238159372
aF-0.03703865268850853
aF-0.10296629397334583
aF-0.3662521521776038
aF0.29090517321095866
aF0.357124339545008
aF0.07460565231436016
aF-0.22856629518482752
aF0.21039577753931077
aF-0.17965404344832567
aF-0.12067248231072276
aF0.08235076073911618
aF0.2088132414500275
aF0.4654809426046766
aF0.03707189192393298
aF-0.057719482520381296
aF0.18166081258901967
aF0.1914372025135901
aF-0.07970730433834596
aF-0.17982886496026046
aF-0.20195037939178115
aF0.2499842943502075
aF-0.3913382617469554
aF0.4392259560813786
aF-0.24671699086234802
aF-0.13527350048258935
aF0.028182202860041295
aF0.0997851267161321
aF0.5138286784307164
aF0.12402498637234757
aF-0.4612929568394344
aF0.03381756571504843
aF-0.16201740212840943
aF-0.3606148582216777
aF0.1531173652947111
aF-0.12476603931020228
aF-0.21710406469451518
aF-0.049463279746590115
aF0.27473048591416427
aF0.08660886887976284
aF0.17890346323664466
aF0.3458011595267119
aF-0.15120433812962558
aF-0.4434221467044824
aF0.0954398512526818
aF-0.3529083930826763
aF0.19758272717445804
aF-0.013551350085672077
aF0.1540574282069943
aF0.011072121308900926
aF-0.052546445093241974
aF-0.0580767806839509
aF0.21501603235536795
aF0.3450926945728051
aF0.31589473590654177
aF-0.01729326491394085
aF0.29201848342325676
aF-0.38443752609247794
aF-0.30038189311591756
aF0.3790938666785427
aF-0.0836567085906583
aF0.0319145799222021
aF-0.22238958149709123
aF-0.15367373316393307
aF0.4137017514624011
aF0.2874249506473798
aF0.06421406561788433
aF-0.24284547650500016
aF0.37404073965098844
aF-0.035262626776417436
aF0.35908367028116783
aF0.007855310506882174
aF0.32652122591036115
aF-0.19833872951631323
aF-0.08434296669915689
aF-0.18349098151573603
aF-0.004398678150661431
aF-0.1817844542733951
aF0.12698013731439517
aF-0.5237894929148272
aF0.07206432733434681
aF-0.26491027247098264
aF-0.4379387874188069
aF-0.004446957351142633
aF-0.6797644407122616
aF0.2648202657051752
aF-0.1512988968648116
aF0.10350405653333164
aa(lp68
F0.03558833046879848
aF-0.0036187628320359703
aF0.41264913923780444
aF0.01919681734767055
aF0.08786823049933806
aF0.23903257243811404
aF-0.19799153848791565
aF0.10890923603688002
aF0.37590478591299087
aF0.034217619116493486
aF-0.2758079520653138
aF-0.16277785586979696
aF0.016142260939529633
aF0.2764356662543374
aF-0.03493266665892613
aF-0.27095014884527985
aF0.23641193131193006
aF0.3870990500460115
aF-0.14488133992014723
aF-0.16803229064551686
aF-0.011686779269508146
aF-0.5562208881317698
aF0.09071279605309834
aF-0.39383620558613297
aF0.06305904153871347
aF0.25194808604405455
aF-0.15035930607124104
aF-0.34404064315643856
aF-0.09309297592465618
aF-0.057610499560345786
aF-0.08135384982426502
aF0.05154962343942802
aF-0.023866512666871377
aF-0.02514538177973846
aF-0.35100344291907726
aF-0.1392878392270405
aF-0.2852483232521644
aF-0.081583161129031
aF0.10511545616523363
aF0.1532570016232756
aF0.34026942180863806
aF0.29886621241708017
aF-0.02079325458144496
aF0.10863803892626146
aF-0.2534320616007235
aF-0.3494303028676894
aF-0.18856418183174756
aF-0.17806188936295453
aF0.03874420039385202
aF-0.2268574632507963
aF0.11226461980339421
aF0.2813186341950021
aF-0.030557940445067266
aF0.230447012820058
aF-0.3256869860035339
aF-0.2700872138996892
aF-0.1335251371074808
aF-0.23620395797550384
aF0.35361546723324205
aF0.3670642337064977
aF-0.0542437261382511
aF-0.07408850418102925
aF-0.08339025824472557
aF0.010331338967592276
aF0.11694810230773145
aF0.03620662061185925
aF0.2473535571736811
aF-0.05447043943063081
aF0.25745160780669035
aF-0.0326999951046068
aF-0.2382265697461187
aF0.20096341242733717
aF-0.0031169485929050285
aF0.09433725695016924
aF0.08103016544681689
aF-0.03769071263133746
aF0.0655592172279479
aF0.21084080051986737
aF-0.28943624956417957
aF0.154610643519432
aF0.2681436320637041
aF-0.08527296757007513
aF0.24303318221448342
aF-0.06330346527391577
aF0.24418403439949093
aF0.07543811562507674
aF0.14493015009098068
aF-0.3718383253511429
aF0.14318386579925882
aF-0.28041070564916853
aF0.38179485151166903
aF-0.5176169065500528
aF0.31423482228968325
aF0.2456514747831171
aF-0.4976610542275681
aF-0.31066345962755637
aF-0.24231628553577955
aF-0.0034903496707097666
aF0.361602070726709
aF-0.29937198924019115
aa(lp69
F-0.13253079236953694
aF0.026086274853246667
aF0.19947819739572462
aF-0.004914433477390625
aF0.004768206919855712
aF-0.07921048180919067
aF-0.11370456775898277
aF-0.15675162755982885
aF-0.17817290230777358
aF-0.021197743215514767
aF0.1396222302397286
aF0.17702657711167213
aF0.19321182545642204
aF0.06328996570639071
aF0.16358410828580877
aF0.028820198661023127
aF-0.07771077335645736
aF-0.154800507793547
aF0.18497849176381714
aF0.10362238529781981
aF0.07664883089281542
aF0.12220349346945329
aF0.05510481522796649
aF-0.09260850129114473
aF0.05165580580069407
aF-0.029947022925118007
aF0.14400708017690358
aF0.15747277487812394
aF-0.14140284133400022
aF0.12149701877948862
aF-0.20108744500710193
aF-0.06742797984042079
aF0.1473050260468254
aF0.10457287561160593
aF0.13796512636787578
aF0.1876934992735244
aF0.19194028914609482
aF0.19507628344077896
aF-0.0489250551906415
aF0.11653953575010467
aF0.026922926617868746
aF-0.11997923659319285
aF-0.19408393063893328
aF-0.1837926859789433
aF0.1681456478799866
aF0.17446544245069417
aF-0.08767374442667256
aF0.13342596695144646
aF-0.027611538834396824
aF-0.13593207208949307
aF-0.13241676169545658
aF0.062492725118317945
aF0.09467911651356518
aF0.14900709912423507
aF-0.13654656646134275
aF-0.13135360669157092
aF-0.06809165907595295
aF-0.1318156800897234
aF-0.023053537832050573
aF0.016394416421100854
aF-0.07018027365072481
aF0.1083143255671195
aF0.086856317030953
aF-0.09256876368096402
aF-0.028288472002228275
aF0.18161158723954737
aF0.15544113048563957
aF0.002286965136825589
aF0.025991856893127684
aF-0.025745776592777905
aF0.009602068388340247
aF-0.09881195506788844
aF-0.15263700626917878
aF0.05021265603790346
aF0.0547170388857966
aF-0.02194152778226123
aF0.12088380358016755
aF0.18498258765631864
aF-0.02596654798226915
aF0.16448356139203962
aF0.18334971898520752
aF0.1621359534755672
aF0.11365089629286564
aF0.10938933476125637
aF0.05783184344530167
aF-0.048138590222052836
aF0.1649591845582275
aF-0.08237506958909853
aF-0.066844791557883
aF-0.15615355058208108
aF0.005054945676111922
aF-0.14360149272782555
aF0.03831848082040878
aF-0.1798621911223639
aF-0.05662216212760917
aF-0.10134305379398906
aF-0.11368326683574298
aF-0.17823139762415752
aF0.14862331175684865
aF0.14537305150713042
aa(lp70
F-0.06693921853274958
aF-0.056532739252570983
aF-0.18188895128211263
aF0.10160885207116815
aF0.12975406563813824
aF0.11703698583381389
aF0.12625011598682775
aF-0.021727499822227443
aF0.04099182635984007
aF-0.06715233878020915
aF-0.14379779724896274
aF-0.15824063119622117
aF0.17524297402545613
aF0.0019033554961059994
aF-0.08679233531913569
aF-0.13939830802801562
aF-0.1490401058731942
aF-0.03804659738178314
aF0.1978034379265696
aF-0.018825254725313486
aF-0.04575873995038019
aF0.08475442731210939
aF-0.11086914958921988
aF-0.0108403196158975
aF0.17055399303243887
aF-0.19190768013763024
aF0.17546230835271703
aF0.05174716526168691
aF0.003391619395561944
aF-0.0739177559543446
aF0.13939316691304263
aF0.03718478921749712
aF-0.18678345377335712
aF0.1854139171674611
aF-0.042450679018527664
aF0.06147772999835634
aF-0.12295699840986021
aF-0.16374050278189162
aF0.05067053379630321
aF0.06362280183165499
aF-0.13424160277173103
aF-0.08818822525105223
aF-0.1942906475659085
aF0.19012561984192694
aF-0.18902391167871152
aF-0.08520099889406378
aF0.1780790951027771
aF-0.1247714116572543
aF0.023630249235385217
aF0.016871736591037592
aF0.13296932281733886
aF0.18897477252159958
aF-0.029872716021543698
aF-0.06853458907336583
aF0.12786099164141637
aF-0.015603322998342743
aF0.12103068160423937
aF-0.15788800990283244
aF0.15936443582783202
aF-0.1898208607329481
aF0.07400517112019686
aF-0.1315894145865541
aF-0.1541344889532618
aF-0.16684827778856703
aF0.17024279915727603
aF0.022693879996718538
aF-0.14535057051094377
aF-0.02610575400875821
aF-0.1647816458561897
aF0.18347752534720388
aF-0.010701866146909093
aF-0.018811591642638386
aF0.10575245096392741
aF0.200666465936134
aF-0.031974636693963276
aF0.13610977733655108
aF0.09408671872278752
aF-0.08963190168689616
aF-0.019743548521767882
aF0.20242067756199036
aF0.18454637262799228
aF0.17359510728634203
aF0.028283343619321267
aF0.16155946322208248
aF-0.1858266801252301
aF-0.14212650742021968
aF0.06796351856217117
aF-0.04536707481177694
aF0.17987085994714008
aF-0.1733628261605179
aF-0.04672211741171071
aF-0.05235002539438193
aF0.051322394263106745
aF0.17533247683925177
aF-0.033570118591290124
aF-0.006012449443889685
aF-0.1820640636424421
aF0.03912277304012827
aF-0.05392710202911457
aF-0.12785103795513234
aa(lp71
F-0.08535187541714832
aF0.12952646945617027
aF-0.07656767142158213
aF-0.1316097596995974
aF0.21071701852292207
aF-0.12259152886843372
aF-0.20897080976171983
aF-0.022276251546702357
aF-0.07035466377356626
aF-0.21186862633596876
aF-0.11753103688307653
aF0.0009573998490709874
aF-0.10981247093893597
aF0.06116578492643342
aF-0.009551108255359746
aF-0.034536409017024886
aF0.03428288519865218
aF-0.22646869906423883
aF-0.06724145102049638
aF-0.10416005499061676
aF-0.10024032661102111
aF-0.033201007327563994
aF0.05397848079349926
aF-0.07155148186002923
aF-0.0674825479101968
aF0.012006070010973747
aF0.13737379803625108
aF0.22830316563993827
aF0.09545264985896165
aF0.1385061240541993
aF-0.12951452821665513
aF0.20796424146583067
aF0.0669127241066268
aF0.16798081360282716
aF0.16802739112898687
aF0.025479001181069095
aF-0.01036189462482673
aF-0.18050203200700018
aF0.03511254769900034
aF0.03338828044037914
aF-0.07707488374932532
aF-0.04674133054875784
aF0.05511570287140973
aF-0.05061495061026422
aF0.2210592742340079
aF0.05044597968261125
aF-0.013212040015503192
aF0.08703530475973541
aF0.1834118315893209
aF0.10154409934872048
aF-0.0310699408767726
aF0.062377528475177045
aF-0.02976936199333061
aF0.16389174164336573
aF-0.030265826683486905
aF-0.19322072161702103
aF0.0381086435845599
aF0.03653342245978908
aF0.03606279931643492
aF0.1426381107748823
aF0.2353274443809362
aF-0.048993104076295986
aF0.19076440108445666
aF-0.21292767829575257
aF0.13392331126962098
aF-0.24864083894137912
aF-0.16148029701478792
aF0.21474770581676542
aF-0.0867810781007078
aF0.060964149805232314
aF-0.04546691844586183
aF-0.005491659881589055
aF0.016090656800545465
aF0.13299957144879884
aF-0.18575100773927422
aF-0.11347021474190601
aF-0.24186117727735348
aF-0.09088774775328734
aF0.1205559257708688
aF-0.15260798404901432
aF0.14703918849559905
aF-0.10167964992229875
aF0.12992802105535498
aF0.19952596490251334
aF0.021812079281881613
aF-0.13400647213212769
aF-0.06024296652870612
aF-0.11892425655982387
aF0.2280793590283154
aF0.13953054369341433
aF0.0007748080036118194
aF-0.02331749088299711
aF0.11218421890706314
aF0.05710113871776718
aF0.07474730384338972
aF-0.042665701979208735
aF0.21068825298617094
aF0.12119954166270931
aF0.06597563754900118
aF0.10983648131989825
aa(lp72
F-0.22915334260638412
aF-0.0020942077659807257
aF-0.06811531020197191
aF-0.272148666250341
aF-0.27395828241999637
aF-0.0003314391302743771
aF-0.0584514586142941
aF-0.25678448915184876
aF0.2517002742056625
aF-0.3704966412102475
aF-0.125373622412069
aF-0.1874055128060435
aF0.09475283512574306
aF0.07850095944281504
aF-0.1787612340839291
aF0.20559946965615103
aF-0.06802913557336106
aF-0.1740746694467757
aF0.051370542329552855
aF0.09075266561363321
aF0.051141160957671086
aF-0.23144405325515593
aF0.046177715668789844
aF-0.001741372942255893
aF0.3454961897165786
aF0.24307534787039597
aF-0.021656223855771064
aF-0.23058529515922305
aF0.09218872394311406
aF-0.35830838349377897
aF-0.15112394569403664
aF-0.0792452414903881
aF0.11268238993084408
aF-0.11845710348458838
aF0.15101530670816118
aF-0.3789592291742837
aF0.13807351610378296
aF-0.2934855228153025
aF0.11323132457184817
aF0.2812642597025645
aF-0.0249748592650166
aF0.1016351997779655
aF-0.13156957081552623
aF0.11435702143704732
aF-0.13883086329061722
aF0.1983727675606016
aF0.09749659628148843
aF0.0316047134367742
aF-0.16075747407678656
aF-0.3231992005110781
aF-0.20318737071033946
aF0.14522942345329568
aF-0.07334972168072434
aF0.08325460187583462
aF-0.3809655368231427
aF-0.03888994354922734
aF-0.12881209481524764
aF-0.37958770764522043
aF0.19310701189405632
aF0.0973911836909724
aF0.027984655011662567
aF-0.26967974868642525
aF-0.08286481430224023
aF-0.4018557973136241
aF-0.060653123020221335
aF0.06548856690249671
aF-0.004852900792744623
aF-0.37881705333408866
aF0.14663298607168584
aF-0.021221746476781083
aF-0.22025389732403347
aF-0.027350388158329964
aF0.17025677876811526
aF-0.16974633311370943
aF-0.028732900986394225
aF-0.11368309016622184
aF-0.23031608126519143
aF-0.1546591757607424
aF0.21709682398887228
aF-0.10745958016324163
aF-0.03139810470613093
aF0.13828581681125104
aF0.14468293779612745
aF0.3087356820219834
aF0.044489800398551944
aF0.14539412627655215
aF0.21578721514081003
aF0.13454660747574923
aF0.002606863143345162
aF-0.19931280607505064
aF0.1980512546862477
aF-0.10516034476417803
aF0.21909576562895544
aF0.08034485158089102
aF-0.14290244831836407
aF0.04098077259854884
aF-0.11221872754387636
aF0.21439234869571228
aF-0.2727017396442051
aF0.24102296059523534
aa(lp73
F-0.4678375852401054
aF0.07424742827515374
aF0.09289276256586386
aF-0.043182459276543635
aF0.37230860888914313
aF-0.27637481884622656
aF0.4139069955475948
aF0.10953696444078395
aF0.08135884598226756
aF-0.15049606279708574
aF0.09769313356307535
aF0.23284582271446222
aF0.002374988481557814
aF-0.1410564196857478
aF-0.07197323995346729
aF0.07827925809438606
aF-0.10873499111877558
aF-0.15019863475453513
aF-0.24797100965665875
aF-0.019333028132547173
aF-0.28110497141539104
aF0.02276876210262976
aF-0.10711423554724946
aF-0.2341099233508196
aF0.24040415658871866
aF-0.519453779110977
aF0.3461604347928742
aF0.17061722811887314
aF0.28291172456745617
aF-0.03990730602366786
aF-0.044239464294725306
aF0.06329222748941635
aF-0.046553181263620166
aF-0.1174819888312443
aF0.3732620301167157
aF-0.23796087633454552
aF-0.0461210849985723
aF0.06973512591245921
aF-0.24738350549279123
aF-0.10619286390523025
aF-0.5047696784391681
aF-0.09492920902604216
aF0.24522849324989568
aF0.05519320870686031
aF-0.05455298693120968
aF0.24008446319536644
aF0.11584472868740804
aF-0.027237711531986876
aF-0.02452442592633499
aF0.02373111629792017
aF-0.38098190106454594
aF0.03823961872635688
aF0.09556162452405702
aF0.07408548356299033
aF-0.03550425444614963
aF-0.24658315817980025
aF-0.28309755105467144
aF0.21362595976501617
aF-0.1408808440680497
aF-0.04215431417370419
aF-0.020335920860760793
aF0.061463829783196096
aF-0.15118622262084463
aF0.0512474639756334
aF-0.2842928583760787
aF-0.0812904535403376
aF-0.06529305237935228
aF-0.1524224656928719
aF0.08368614914962515
aF0.6017401637483567
aF0.05011101332518841
aF0.1410340105468175
aF-0.05466900577019067
aF-0.056855647844244996
aF-0.22570297856170424
aF-0.2277976148163935
aF-0.2536508192164885
aF-0.2628348946680749
aF-0.2683270172465712
aF0.10290774742643202
aF-0.5675828592115443
aF0.10339608678951868
aF-0.23442913623799105
aF0.2882277195613355
aF0.16167650667470482
aF0.31269353247363413
aF0.3030899380221546
aF0.050313413274554575
aF0.05359019358381667
aF-0.2990570302689851
aF0.22566837685548966
aF0.33715555811492715
aF0.1896092102723253
aF0.38012622509353095
aF-0.36008523734474673
aF-0.4943441522160891
aF0.7183755359168378
aF-0.41841218711099865
aF0.31848796533844353
aF0.009630667196321458
aa(lp74
F-0.0826014640610488
aF-0.14348829754465087
aF-0.3403614431528663
aF-0.1066075417568132
aF0.2251772095184888
aF0.15788976297063748
aF-0.05191317228172787
aF0.057855481521346785
aF0.219111270803476
aF-0.008286137524641959
aF0.04037339935800735
aF-0.27000370567698734
aF-0.28142658093642375
aF0.011225582172637433
aF0.3275177657277474
aF0.4831211101217281
aF-0.552726610896709
aF-0.25939575398881864
aF-0.33900702571786867
aF0.02659999854485349
aF-0.09396554931087973
aF0.5018408844751417
aF-0.05543058942614178
aF-0.13873164368102422
aF0.12991377474437804
aF0.43124069135459203
aF0.33222161209829304
aF0.28354761961071845
aF-0.017262643646634577
aF0.13388738152731147
aF0.44480097495629334
aF0.2384481199492975
aF-0.4117379959325085
aF0.2893014389053343
aF0.25700413429034435
aF-0.056724737483114664
aF0.14735846749746134
aF-0.2785423565739055
aF0.18955693865254875
aF0.24670137955404697
aF-0.1930784014126193
aF-0.03922267275167324
aF0.17325024645211648
aF-0.16849472943138327
aF0.29465762486199404
aF-0.1720737279036463
aF-0.09678872498729577
aF-0.014824019278347414
aF0.16571352472498152
aF-0.10540894136382721
aF-0.3605325844355868
aF-0.08109493470581375
aF-0.14435349431089525
aF0.001370992758160166
aF-0.1202661717837026
aF0.16896798780355837
aF0.015630850956066474
aF0.3809810306358992
aF-0.132380198933417
aF0.15067075318542397
aF0.30129896797986994
aF0.017163967712488584
aF0.371995698823624
aF-0.15891837469013767
aF0.0016771581127574737
aF-0.5184558890484461
aF-0.16373319312503815
aF0.43146437469885157
aF-0.24049217042283041
aF0.2467506976718084
aF-0.1639213555400295
aF0.0037083313800534315
aF0.04294532997584272
aF-0.16739246121155704
aF0.059452637682122556
aF0.35096931480569554
aF-0.3422890623273916
aF-0.03696173065819109
aF0.33723932062465223
aF-0.09395419267007153
aF-0.02978424826161282
aF0.1696237509024812
aF-0.196562597848744
aF0.33843721878331817
aF-0.3746916504304599
aF0.006796094121318393
aF-0.07832409573161904
aF0.6521724586633396
aF0.04794417873184713
aF0.18349468304923422
aF-0.38954197083624414
aF-0.02565414558250257
aF-0.5566663447880885
aF-0.04205973137370345
aF-0.1485805910472076
aF-0.1344881087304243
aF0.0453409589987371
aF-0.1779322149623135
aF0.3766644428828236
aF0.0960952437306563
aa(lp75
F-0.27972837109719506
aF0.30879361345638767
aF-0.1582914542364934
aF-0.3098821914939246
aF-0.08446608461287682
aF0.14840629989024867
aF0.15313438437696705
aF0.12052537686283143
aF0.4076419208373549
aF-0.34009980624559427
aF-0.18674543193954518
aF-0.5579990358348141
aF0.11619811996172566
aF-0.16566578462827403
aF0.20278391637398582
aF0.4631532412934869
aF-0.22831820979383888
aF-0.05593395595362078
aF-0.5888273895757558
aF-0.08993832515699099
aF0.14722569113954773
aF0.04771137114157765
aF-0.1706292022782769
aF0.163961581835712
aF0.061650007847765094
aF0.23349050723690615
aF-0.1090402306276414
aF-0.13677969057439407
aF-0.25626622168804014
aF-0.2690369579885339
aF-0.13714196341842597
aF0.04743301366563384
aF-0.27993592567660763
aF0.24012302340195665
aF-0.018049839042920682
aF-0.07807131477163781
aF-0.3358523625125488
aF-0.44153717839568235
aF0.151926575592245
aF0.3520636351712924
aF0.018255981736279667
aF0.5203691280899829
aF0.19368205137591976
aF0.31614889606352753
aF-0.2534896078770634
aF0.051889701291856306
aF0.0913595422706248
aF-0.11848556895097927
aF-2.851266565296397e-05
aF-0.387060614026213
aF-0.422795114361055
aF0.015738789110509393
aF-0.08753681841650092
aF0.21433972453252367
aF-0.5471532772272988
aF-0.2764233564673104
aF-0.2280636813973058
aF-0.38251023533968875
aF0.39170724741405305
aF0.2539550760090272
aF0.14673435809829372
aF-0.2708103978231295
aF0.17891575538746088
aF-0.05830795158798478
aF-0.2761986133656966
aF-0.1686098752269361
aF0.2027289493781001
aF-0.2349863397384556
aF0.20314704524825178
aF0.3452825365485591
aF-0.20509007522222367
aF0.250411292962803
aF0.2820019095742898
aF-0.15826627156527837
aF0.1749542313715912
aF0.3774083732633779
aF-0.13423741981237206
aF-0.08426336652353245
aF0.3168946787913371
aF-0.2703416099577151
aF0.18308006263744503
aF0.15352812278771721
aF0.25456707626999014
aF0.6627602198096303
aF-0.20082960481208317
aF-0.02093635647294595
aF0.1478804839707489
aF0.19731728504368937
aF-0.16399293472277865
aF-0.1382322464717746
aF0.19499590393086977
aF-0.1423599715256831
aF-0.19733244743679096
aF0.05884903689220256
aF-0.30940381356752156
aF-0.3648580067288279
aF-0.02349779968893841
aF-0.005142130941167191
aF0.17337945210408537
aF0.1663240985074614
aa(lp76
F-0.12765085474984142
aF0.33578629493211987
aF0.25112765259162556
aF-0.11160381039438699
aF0.060585825113591105
aF-0.05779633077271701
aF0.25189857969242907
aF-0.10583233961917253
aF0.3409001001560481
aF0.06711433806266942
aF-0.01768340043691356
aF-0.30936189338083453
aF0.15469680145229373
aF-0.13638471022339854
aF-0.03899273026614556
aF-0.24304475937428524
aF0.05743209813485472
aF0.2577211565067473
aF-0.2283326924413142
aF0.037533056885713026
aF-0.02445990609898811
aF-0.19542353944216703
aF-0.2582806495268717
aF-0.32145910247730014
aF0.11612448403368496
aF-0.10567934721866905
aF-0.1807614501538185
aF-0.34044105666143976
aF0.012202447603414483
aF-0.21647766520574635
aF-0.31362557161689214
aF-0.27646743432809323
aF-0.1133441752439838
aF-0.0746970270931702
aF0.1359098427211133
aF-0.16632734718419634
aF-0.218699617725503
aF0.13534724633278447
aF0.19824949583414073
aF0.16948248113689923
aF-0.13547197824775029
aF0.46621713047228197
aF0.1340596459625254
aF0.016826391849305077
aF-0.2957876194285653
aF0.23042410380405035
aF-0.0449656862087541
aF-0.24084312044014183
aF-0.26669545922032106
aF-0.2670098318841073
aF-0.17376407504932
aF0.31783342547712423
aF0.1304404614822396
aF0.025521038293792896
aF-0.1693520498725692
aF-0.1985636656953886
aF-0.2965275711452145
aF-0.10861714732576473
aF0.30028427686823883
aF0.40619967080765995
aF-0.0014097667035318738
aF-0.008591502859786474
aF0.12196761635607502
aF0.19718201851917946
aF-0.1013131299685452
aF0.009076014450663375
aF0.10033899343445299
aF0.062321944368406476
aF-0.07365121357083272
aF0.24787403359922985
aF-0.018253549310063236
aF0.28421470601099963
aF0.13758024042648603
aF0.12779882302391818
aF-0.19866274609035284
aF-0.10548345278309423
aF-0.014430727292290465
aF-0.0017921937875620994
aF-0.3341772780787442
aF0.22236053352942206
aF0.24499340789004828
aF-0.05698368128042621
aF-0.09273064712215204
aF0.08574648012152462
aF-0.014562320836751262
aF-0.049298902417207656
aF0.19007372119560528
aF0.04944041413616704
aF0.2627878713314588
aF0.1348446127358828
aF-0.04948389093387455
aF-0.10067659403353865
aF0.06739652279043323
aF0.5197123726442954
aF-0.28302770662802146
aF-0.5948097726858801
aF0.18952769230197117
aF-0.2014915320453004
aF0.3377875631067081
aF-0.17083588940328953
aa(lp77
F0.12335285474866806
aF-0.17350242728064422
aF0.05934626250883271
aF-0.0006803395984611908
aF-0.158316099435856
aF-0.08992276009419199
aF0.13732045757351383
aF0.13161218381465156
aF-0.10932539040167066
aF-0.0704823964335806
aF0.0886352514716952
aF-0.029930893119594373
aF-0.02359385903349048
aF0.0457520330883129
aF0.13401032221966547
aF0.13287204367958036
aF0.11380453443660661
aF0.12542188137066007
aF-0.011365466642932814
aF0.2373988839908671
aF0.007482908583345689
aF0.16683799256148063
aF0.1565666895008325
aF0.009777856560968997
aF-0.07428963677822979
aF-0.06220163582266008
aF-0.11549566279711138
aF0.22513626967339095
aF0.027673623167712567
aF0.19367899474934183
aF0.1593701839742804
aF0.158519682551703
aF0.1562400853011196
aF-0.20056700586293372
aF-0.050459592187099854
aF0.187701826037968
aF-0.15884545489966145
aF0.15977599269431286
aF-0.17112744140459563
aF-0.029370222324907814
aF-0.06498893962205256
aF-0.15453103971511833
aF0.11124762671928197
aF0.11866062588255526
aF-0.15528269492007024
aF0.1734374022058774
aF-0.18944348993181154
aF-0.014098430291371042
aF0.13136267465166565
aF0.08762472058765881
aF-0.08545611663270265
aF-0.06465636072755758
aF0.15983680516483076
aF0.1040380848885359
aF0.08803259095306534
aF0.07409850624180832
aF0.09026392541716133
aF0.17851719025195872
aF0.18011985366466177
aF-0.02970668153342542
aF0.016690264406959216
aF0.11474223572668996
aF-0.16635259844454464
aF0.116782953356908
aF-0.10904928595504745
aF0.046898837656694434
aF0.026064081082871338
aF-0.00019155889732760522
aF-0.16953873373225756
aF0.22426952454006047
aF0.1024527061940816
aF-0.06252230580600583
aF-0.00260728212896527
aF0.013449301358960483
aF0.009186532743792932
aF-0.017759165059021545
aF-0.08814882214817027
aF-0.048648389295438604
aF-0.025769461391664115
aF-0.18332973530588675
aF0.08651226732134067
aF-0.06263248705354459
aF-0.10758256978609271
aF0.16276414427791036
aF-0.16664350192317867
aF0.10187829464203682
aF0.050283238376269426
aF0.09838596471886031
aF0.11898413182164401
aF0.14057353953915916
aF-0.13261163792545122
aF0.0890436327342865
aF0.12216260188865873
aF-0.12227395567095874
aF0.12542054246496315
aF-0.12992512812504328
aF0.021230054519687996
aF-0.0077003468221775884
aF0.10477950282088527
aF0.05549827454795429
aa(lp78
F-0.1841127862994617
aF-0.05384727356106607
aF0.08358012199474503
aF-0.15414121824481622
aF-0.07302586822704395
aF-0.1841173115634887
aF0.18011804350703547
aF-0.1545334733711304
aF0.18160132601251758
aF-0.17455935792071056
aF0.03468438813222975
aF-0.012709530605068407
aF-0.015173978174357056
aF-0.025093922568632517
aF0.04922189132814167
aF0.13353808553477314
aF-0.045566354149021104
aF0.02929667638981206
aF0.14649525885658307
aF0.025091774650759274
aF-0.02710107675190693
aF0.13239657961785312
aF-0.003640758695905559
aF-0.15523713227072922
aF0.1292340694147569
aF-0.10323157324440844
aF0.029521144969767273
aF-0.049336627422566386
aF-0.16453303253822588
aF0.15288376159021863
aF0.03547770924735415
aF0.18728172895936293
aF-0.1494892908666545
aF-0.02893092476856496
aF-0.17519092193475816
aF-0.16014689000856674
aF0.19069486421591408
aF-0.12606165944020375
aF-0.1674628822125911
aF0.19865639833931417
aF-0.12176308947181225
aF-0.06107852897078581
aF0.14328204248042464
aF-0.18979756028759587
aF-0.05698070139993141
aF-0.035772069206901375
aF0.07334962109669776
aF0.12509474854526778
aF-0.02654509804613076
aF-0.05829946337881134
aF-0.10691024683056677
aF0.09737745117684649
aF-0.13428745866495465
aF-0.14519612688498684
aF0.1917578126979764
aF0.05158826448088457
aF-0.1947393090711245
aF-0.009386639167639264
aF0.1573159572611667
aF-0.05017116473004112
aF-0.026739469455306676
aF-0.11080759069559318
aF0.1570405747078311
aF0.05285355398008849
aF-0.11425834621300403
aF0.10669855277752296
aF-0.033669181876181474
aF-0.13706635040699017
aF-0.0694444336280263
aF0.15298040020207498
aF0.010082355509493348
aF-0.02168564495459785
aF-0.10703887446149
aF0.046285003086219585
aF-0.0015072844901435518
aF0.0746419056980901
aF-0.15488900724171803
aF0.15443123570493444
aF0.155776849670839
aF0.041733495173754735
aF0.03955008677565783
aF0.00475369724480175
aF0.011387745642259323
aF-0.11322175197148257
aF-0.08231916134312901
aF0.16416009676308935
aF0.00825095111577662
aF0.15593895052356815
aF-0.06842001314790629
aF-0.1002729717698471
aF0.09019053322681375
aF-0.08761694062078337
aF0.006544611711318758
aF0.08907264675419999
aF-0.1116554530929679
aF-0.13170193447811385
aF-0.1176869280927879
aF0.16704946678120292
aF-0.19519301851314477
aF-0.12328653551399608
aa(lp79
F-0.23036995467049817
aF0.17218388662979178
aF-0.1406437269576889
aF0.09674559173464764
aF-0.14264169659700476
aF-0.051473332094617005
aF-0.05570102605569559
aF0.1889853215540891
aF0.20051520516236931
aF0.16019123928817053
aF0.060236535093005764
aF0.06468998730653547
aF0.08764955316215929
aF0.058576024101163124
aF-0.14003613415666508
aF0.11913870397257223
aF0.017960808227559192
aF-0.03312668886937111
aF-0.1678131691217986
aF-0.07811295299893048
aF0.18309723098798844
aF0.021442828134972895
aF0.07870710757916437
aF-0.007775168506240329
aF0.16164967813653236
aF0.2014069924256663
aF-0.01574151266848633
aF0.08793682973462807
aF0.1818299441061963
aF-0.024608341308514907
aF0.05598461662102747
aF0.003941650185708872
aF0.20489315572450434
aF-0.17361600121374768
aF-0.13277648943889014
aF-0.13594658686877137
aF-0.05994242278951563
aF0.2015377746861116
aF0.09891308555792112
aF-0.014043345802771853
aF-0.10255042312369334
aF-0.09900613699818493
aF0.12652886299655655
aF0.16487127885724917
aF-0.16943411944904613
aF0.0003036024506793597
aF0.11087348195390608
aF-0.061057701429814204
aF0.03174565859768151
aF-0.08650014434639632
aF0.049939469810118375
aF0.23746194737163467
aF0.1278725094127738
aF-0.12283041916310565
aF0.13618101510718383
aF-0.2197347492687651
aF0.09384969944095087
aF0.02623588690808599
aF-0.1496564969703896
aF0.032101394791571404
aF0.0040300054162069774
aF0.18620427985642876
aF0.2136263646173131
aF0.13280968720530212
aF-0.1829959930483636
aF0.06519716908828582
aF-0.11397363997616679
aF0.08121116345772263
aF-0.20405021108181934
aF0.12203126301833704
aF-0.05080101789566128
aF-0.16613825876613705
aF0.15028219955490724
aF0.027031462930205502
aF0.1967518022635717
aF0.11131244951754105
aF-0.08691054577975155
aF0.090534099104904
aF0.01631908884893157
aF0.18858754470575387
aF-0.049001132904309526
aF0.22219024658608744
aF0.016717345842820655
aF0.15497394451380683
aF-0.13654548546701364
aF0.11818835027973655
aF0.04523012928366924
aF-0.12723859722765002
aF-0.1754533070862111
aF-0.040307811859695564
aF0.018938814287799845
aF-0.09416835133359228
aF0.14847587425699807
aF-0.0974803977769167
aF0.167509301966588
aF-0.0055029870336988865
aF-0.10646911406912682
aF-0.14710945107122236
aF-0.13560549548130016
aF0.09004635810123422
aa(lp80
F-0.28347901787036167
aF0.09415003148833774
aF-0.2562398700484773
aF0.18808795381738785
aF0.5638543147659787
aF-0.17285900912347987
aF0.09024257016914033
aF0.12932854929509838
aF-0.18407790222236414
aF-0.07278337334746864
aF-0.21089297152263875
aF0.12541075555216075
aF0.13992282360888866
aF0.23685216029974088
aF0.08571514877017274
aF0.2832695455377034
aF0.10304129303572246
aF0.2748604544888339
aF-0.33088153777686063
aF0.058775400974064945
aF0.15976463337168406
aF0.021383725988177758
aF0.2583961183486823
aF-0.25758423486303816
aF-0.2561252961967626
aF0.15199882068692358
aF-0.24490581489137775
aF-0.016626677337360434
aF-0.1321093042083639
aF-0.33453108635887646
aF0.2565675913736778
aF0.4853082818278111
aF0.0701320595372054
aF-0.05740953043243214
aF0.4401181807713868
aF0.05768368406478093
aF-0.19632096354340955
aF-0.09787921020328705
aF-0.29003714830791066
aF-0.05302199828672983
aF-0.049514307790155754
aF-0.11291211988099066
aF0.11271551505755685
aF0.05223495471165607
aF-0.279644837364618
aF-0.12046351211790132
aF-0.26842477355963906
aF0.23282107171857935
aF-0.006746517210856135
aF0.13450611565362974
aF0.06491175220597589
aF0.611592102433012
aF0.11770412626067527
aF0.035665708730917504
aF0.09629283431445063
aF-0.18956366282344495
aF-0.08710851809174636
aF-0.13046746711336007
aF-0.25121315858259535
aF0.3563493397330953
aF0.47288393680371454
aF0.23433263516231154
aF0.22330376961287704
aF-0.39961503810203497
aF0.17827130306101302
aF0.11236287788695022
aF0.23397528496192813
aF0.25621462163373715
aF-0.3461243741105203
aF-0.010778705238803678
aF0.15296528623042493
aF0.13273192995896332
aF0.28610096365129023
aF-0.07686428537661673
aF-0.3168555027446037
aF0.2725426028991678
aF-0.034187781819008396
aF-0.07914477550223317
aF0.09729082922256144
aF0.1967155109464353
aF-0.17182658283352756
aF0.12293197681582288
aF-0.39972109714235526
aF-0.0641329611550941
aF0.10162841835028748
aF0.1110336658121417
aF-0.07665261777128417
aF0.05461119934815888
aF0.3326977370067879
aF-0.30483187094058883
aF-0.04463344589473294
aF-0.14446293484114664
aF-0.38095124561383825
aF0.21334081919307582
aF-0.07969779904511468
aF0.16260602191996573
aF0.008140861944853429
aF0.06967557965333988
aF0.18418227932362755
aF0.09256460359995135
aa(lp81
F-0.2856504204125574
aF-0.10300907079321318
aF-0.05302560326443724
aF-0.18102015492663334
aF-0.062003813225603416
aF-0.08403035579535052
aF-0.16742701378168362
aF0.03659802384789318
aF0.040851113736991504
aF-0.040868796478461304
aF-0.11591204984344321
aF-0.03865400895259916
aF0.20363772196893512
aF0.16227626577958584
aF0.07238137624875628
aF0.14542599922342062
aF0.002320340787784065
aF0.2473367590761984
aF-0.2911493528354693
aF0.2354330155983494
aF0.29778533536350366
aF-0.034759005163421335
aF-0.12401615520139618
aF-0.053042390979755785
aF-0.06477378149931026
aF0.22779458374798678
aF-0.33167355670149545
aF-0.03410603548323359
aF0.02984318990174431
aF-0.3676826394047176
aF-0.04020530228849662
aF0.061470512463923786
aF0.13313252215233656
aF-0.13300194578024285
aF0.09561892918182331
aF-0.1347271060209061
aF-0.14078438141571434
aF-0.20529515801373785
aF-0.05026279271453623
aF0.08941819155295802
aF0.08638761586906668
aF0.16947804348238468
aF-0.1050894751596648
aF-0.03346522870984496
aF-0.11975680399212105
aF-0.22379821804936845
aF-0.07220927056007011
aF-0.020620023902145714
aF-0.08521581262180576
aF-0.19301438637843565
aF0.09522215074602787
aF0.2949417226404963
aF-0.012013385437861174
aF0.0664407632771476
aF0.16449846577429855
aF0.05815795888178126
aF0.006858752603066202
aF-0.17366080415171276
aF-0.08485169250899818
aF0.02497350269168061
aF0.11144551328414101
aF0.1364532423479857
aF-0.05936278039206725
aF-0.3020537952602564
aF-0.0018961076639328425
aF0.12489410096141958
aF0.1115045241632565
aF-0.06840573372455751
aF-0.13829280214400863
aF-0.10937558423534272
aF0.09411078170284387
aF-0.19821336269710846
aF0.0543752572440326
aF0.08465132679270568
aF0.03569243155930471
aF0.3134770864541121
aF-0.07225469632791935
aF-0.21132908850410909
aF-0.0016172305814275176
aF-0.039828255383949074
aF0.06125007156148378
aF0.05234294511883413
aF-0.12593956079013857
aF0.07255563123645066
aF-0.00808599590106565
aF0.15003231942763678
aF0.02272729984024371
aF0.18103100136029282
aF0.0396111867437702
aF-0.31712643938590895
aF-0.016213002734806164
aF-0.10586619916170188
aF-0.25533407526665164
aF-0.1053651026948747
aF0.0009251735101225107
aF-0.11005686022700274
aF0.09494426217270562
aF0.14858371838732387
aF-0.07969554502874103
aF-0.04662725140234766
aa(lp82
F0.22192379634320492
aF0.27721474758155384
aF-0.1470188652718875
aF0.0519915223566875
aF-0.349761574103538
aF0.16260515362704925
aF-0.09133307442548202
aF0.04230261471028509
aF0.2825763440593874
aF-0.05458216896194526
aF0.10541093759591467
aF-0.6063173391026215
aF-0.25870583293720695
aF-0.11046834207363687
aF-0.0953165061190031
aF0.3137206342794052
aF-0.17506580508268035
aF0.11118548265812447
aF-0.3498216846120277
aF0.04254903199561719
aF0.0773399511300524
aF0.24016111150825972
aF-0.32012104481345544
aF-0.18972582604938276
aF0.09342694500066827
aF0.0346085589349257
aF-0.23798936408057725
aF-0.0486462979712321
aF-0.12403054076430291
aF0.13238756887939834
aF0.1722656250075259
aF-0.38927567022009957
aF-0.26097367918696907
aF0.09175178713443492
aF-0.12932436279007442
aF-0.2315809793515424
aF-0.10422995298310914
aF0.03969400374691901
aF0.3134272016600785
aF0.32951050492395095
aF-0.24969961263394938
aF0.30487105579123747
aF-0.157422122468343
aF0.11293562796853232
aF0.10865712378491925
aF0.0212717097144305
aF0.05697831587818593
aF-0.09308852311497913
aF-0.1969705002789558
aF-0.39184253776866035
aF-0.12357470597765514
aF-0.12112659831540704
aF-0.0770377069773036
aF-0.06135420934544489
aF-0.3516157499555462
aF0.06772690719549589
aF-0.10882606594135846
aF-0.19586532203610615
aF0.4987680252040378
aF-0.10613779232844976
aF0.23544112666362116
aF-0.07936077316722444
aF0.2583919944333002
aF-0.12825387545439879
aF-0.10982094301197308
aF-0.4840164495001713
aF-0.006406696025184535
aF-0.0313042979220132
aF0.23839668548477844
aF-0.12423530214932714
aF-0.35996418592738505
aF0.15055782205528773
aF0.36545441996254985
aF0.11644808096399999
aF0.249941817525914
aF0.41225893631007615
aF0.08247850452171657
aF0.1227085765541859
aF0.06379968659397575
aF-0.34672732572321047
aF0.30667703067938235
aF-0.052279344895135055
aF0.09993415442193672
aF0.4733535866436617
aF-0.30899145550312934
aF-0.3399987774592491
aF0.06043345835062382
aF0.07006222862743468
aF-0.2540283472669507
aF0.14774920237610997
aF-0.05250737256349518
aF-0.27187720671637833
aF0.08064749590096441
aF0.3089166360727796
aF-0.08175168398122538
aF-0.37823350737330075
aF-0.35111787929796845
aF0.09194784079070865
aF0.1377977997303638
aF-0.009592030258733234
aa(lp83
F-0.5292337537707243
aF0.28754620773359435
aF0.11864041340203156
aF-0.06427455647363903
aF0.1468289920994457
aF-0.3602053134091355
aF0.13109910865853935
aF0.16662336361610758
aF0.3827913934281866
aF0.1537389952992266
aF0.20223974909613365
aF-0.20560405570670598
aF-0.21917829247186124
aF-0.35919578572224464
aF-0.09489940211759253
aF0.23754124791339518
aF-0.3870482887958327
aF-0.0799754873258716
aF-0.38206879379374803
aF0.5229068990690147
aF-0.2238965080902315
aF0.22969719315445822
aF-0.4297337354878729
aF0.055027912574580916
aF0.0763862130588998
aF-0.4167726494170732
aF0.0028532512779751336
aF0.001616967195851212
aF-0.3280591966346834
aF-0.209339251254769
aF-0.07766773170174288
aF-0.2950817346932012
aF-0.15564064423498247
aF-0.09814173039465186
aF-0.07901637772334379
aF-0.19762936307612525
aF-0.26502519840140026
aF-0.0490942042799904
aF0.19413244832259896
aF0.04669395823877904
aF-0.24418475500352457
aF0.5141846784091987
aF0.35524311704038225
aF-0.1210069221057278
aF-0.10699367728735058
aF0.26020877897357053
aF0.053242413214574624
aF-0.02174296371901642
aF-0.3339374020361758
aF-0.4052796040197238
aF-0.6548738673308169
aF-0.0915855529255897
aF0.23366550306616607
aF-0.04541738267015356
aF-0.03402795104554845
aF0.08149754467831609
aF-0.48685195989312446
aF0.2578937569984548
aF0.38053986064610124
aF0.43743094564705615
aF0.10966210113826572
aF-0.24265499244234112
aF0.05795422438871274
aF0.17367134883061094
aF-0.16992874603557853
aF-0.2758879606543225
aF0.09624121878521646
aF-0.17380366318266133
aF0.24601046580887245
aF0.19006229040682557
aF-0.1851228440009399
aF0.22981358651416522
aF0.3951890210602806
aF-0.06922767709972523
aF0.28336219398423296
aF0.37267444763349356
aF0.04826596987262711
aF0.11789583785925457
aF0.012908491852164476
aF0.16843681589176784
aF-0.14421756780629472
aF-0.2098856609073846
aF-0.0050535512104973234
aF0.5673777104053429
aF-0.28368036798342494
aF0.055746374005430206
aF0.43096038699819705
aF-0.046650459924216264
aF-0.07653869625846287
aF-0.07211201974210464
aF0.18511863350362265
aF0.09375184620474192
aF0.2223169673715735
aF0.479860419248013
aF-0.15512432378690807
aF-0.8442951383750861
aF0.08519329137320492
aF-0.17854628389675736
aF0.5699038398198525
aF0.12766888615508784
aa(lp84
F-0.24866207983348715
aF-0.050149231704812065
aF0.04387972412334613
aF0.2300418678432516
aF0.2873503133722996
aF-0.3465758958545294
aF0.0772419525090753
aF0.18235377148656276
aF0.2244277722248468
aF0.06440051566582036
aF0.10923047548267428
aF0.04108083574732786
aF0.07159118573348949
aF-0.1446268085783147
aF-0.09467074191905746
aF0.23891363297767285
aF-0.3258522033557396
aF-0.3184013641578549
aF-0.007412272779645946
aF0.16123145484484677
aF-0.19271434708485793
aF0.3096034487863721
aF0.007821462429508312
aF-0.14906837937139888
aF0.07190493625077327
aF-0.27556940790985146
aF-0.025672674034780123
aF0.07760028816211295
aF-0.19119355114076733
aF-0.2070164591385743
aF-0.18362933455487362
aF0.1409644406225033
aF0.14737280776890965
aF0.08721948505434798
aF0.41280060774504795
aF-0.48107031345276674
aF0.08462768467780565
aF-0.037569828346717044
aF0.18621736606263367
aF0.06382574958345968
aF-0.5224702315692226
aF0.2563761261319181
aF0.31204235357632865
aF-0.1664639717760318
aF0.00566749563278491
aF0.31877928780467923
aF-0.1559163747234138
aF0.19561111118433225
aF0.13425313947487003
aF-0.15914897326985614
aF-0.359978250888614
aF0.14820814149653366
aF0.09152289674784786
aF-0.016123461752853865
aF-0.05242196795218312
aF0.1524011061754822
aF-0.19081228023532554
aF0.4285090541962941
aF0.2652703508005115
aF-0.07986747874432974
aF0.13172498998622448
aF0.0911208094144741
aF0.04838697703445216
aF0.0004240616142088649
aF-0.2673484463690527
aF-0.3277806334851352
aF0.09285077374009326
aF0.10267642027034403
aF-0.21585525040476364
aF0.10736819875980244
aF-0.0701853964222298
aF-0.02268635916447852
aF0.2480897700372551
aF-0.02871695411474582
aF-0.024532785662288926
aF0.14697184146472297
aF-0.3508489858029498
aF0.07244471782473608
aF0.16111774192751194
aF0.10333908542898712
aF0.09370451212382241
aF0.0942876270518219
aF-0.1492684183103327
aF0.28110711373495373
aF-0.3539680050891332
aF0.1850426766461856
aF0.08567904668770289
aF0.07083328219499375
aF0.12275093290356091
aF0.28885135176833376
aF-0.19903388423225588
aF0.16699393906085624
aF-0.1219784816186084
aF0.20487207678528332
aF0.18277027260501985
aF-0.20845994189347275
aF0.232778229057572
aF0.06731077248848971
aF0.22127577248377378
aF-0.05678451478863291
aa(lp85
F-0.18974827958310408
aF-0.1060590917033412
aF0.06965444312373756
aF-0.033814814424866696
aF0.1560738232616158
aF-0.11009050285379086
aF-0.10639893651518553
aF0.17712155814716352
aF-0.2164871200474874
aF0.22096939598800575
aF0.24728435165972146
aF-0.1649483420034514
aF-0.2439004856679405
aF-0.21921333450650798
aF0.04426123211120038
aF0.270175744792631
aF-0.20056100833955048
aF-0.1590740378269952
aF0.03743857557570094
aF-0.05419025653069229
aF0.030289351972842566
aF0.19629609395467548
aF-0.10677538963862421
aF-0.09988604479266308
aF0.16864960737174473
aF-0.05190238765433591
aF0.23304499261817307
aF0.154500808748638
aF0.01560851771086523
aF0.20614293589242114
aF0.1642658317134587
aF-0.03388569544968486
aF-0.14883890674318595
aF0.0786703215774929
aF0.04172812229089009
aF0.014466203949071974
aF0.24883929282671502
aF-0.013991164012140173
aF0.20733922439548297
aF0.03952416849678434
aF-0.20549961243385131
aF0.1346615086491822
aF-0.0432424546842822
aF0.026758328849451212
aF-0.07656999255371233
aF0.266047429458881
aF-0.07231572071940899
aF0.09085455780061895
aF-0.14190964838319695
aF0.006184422235807056
aF-0.1577913688701261
aF-0.22431357038149852
aF0.1710351974666007
aF0.040046186326831976
aF-0.10911885628076552
aF0.13901856679399657
aF-0.20934189377484952
aF0.20376303173368335
aF-0.09244550221679468
aF0.1109958256600772
aF0.04378101504089799
aF-0.015554793258650054
aF-0.1246683816046662
aF0.17040663682133492
aF-0.22361540249721368
aF-0.17597168726257267
aF-0.20562860121248028
aF0.012638361202634276
aF0.1071446642008468
aF-0.06259337403259238
aF0.15046431769481786
aF-0.037724182943895096
aF0.03827064032537149
aF0.12882707439391416
aF0.18953602022741536
aF0.19734031396811028
aF-0.10012842721574514
aF-0.0025516096164391647
aF0.17888562543205422
aF0.18687674398820667
aF-0.087735080110529
aF-0.020156536484446336
aF-0.07616160291597622
aF0.23268636608739227
aF-0.26967094006235964
aF-0.12700752808875848
aF0.10389218648731638
aF0.14226527368180178
aF0.09687091831634753
aF0.24168974379029962
aF-0.1320760624943103
aF0.29822772922875296
aF-0.08125948823797628
aF-0.14210536388898504
aF0.2542844657207139
aF0.05939681392322515
aF0.10492834670785094
aF0.010032054880044565
aF0.15561966509135547
aF-0.12980989501340306
aasg9
(lp86
I1
aF0.2926738929747728
aF0.4597085485472914
aF0.2310130752457601
aF0.505697154971305
aF0.39453857587497543
aF0.22503770107370027
aF0.6672939003746043
aF0.6277058620123518
aF0.2671342804698152
aF0.6523112168708939
aF0.577216107426233
aF0.3836652278051625
aF0.30875508375267613
aF0.13295209775501593
aF0.6067285757819565
aF0.5775713661744606
aF0.3722354329592863
aF0.27809727887198354
aF0.3452428230777864
aF0.6316508649422596
aF0.34525268511473445
aF0.6539329487334948
aF0.4975733480886721
aF0.582419450969446
aF0.46242260872247387
aF0.2509925905286065
aF0.5636296954219098
aF0.5027078650410044
aF0.5949898949129605
aF0.405446969851266
aF0.42731823932446067
aF0.3094710975460954
aF0.5772043399227783
aF0.352889722389049
aF0.26112367030527633
aF0.4725975332253392
aF0.622555633134972
aF0.7602474464242176
aF0.3817409938281896
aF0.394331636673139
aF0.4350446647055735
aF0.4991578918050174
aF0.3952736327408545
aF0.3838103151756049
aF0.35633669535488727
aF0.7140585028588511
aF0.7762115193826273
aF0.6592954385693415
aF0.35695117497967704
aF0.32667871436827045
aF0.5070951433681866
aF0.23408293393493163
aF0.4982626104229744
aF0.3249966145494639
aF0.6256762625169698
aF0.5799719838882358
aF0.3303077417726007
aF0.670730443088678
aF0.3868242351714488
aF0.3718566373578636
aF0.17419180261027423
aF0.39720468068591924
aF0.5629200416994853
aF0.6987157175949796
aF0.2846397798915545
aF0.34783517015027743
aF0.3497748048245904
aF0.3781901490184326
aF0.5741586228550019
aF0.5580605825433822
aF0.2692982762837514
aF0.361185911276302
aF0.42203993577744453
aF0.3559767627565979
aF0.6707462041252445
aF0.5716270338348763
aF0.7743288785130569
aF0.3750152798368845
aF0.49674662207020714
aF0.45933910970839126
aF0.4215452008966968
aF0.4019448522479282
aF0.432899080575228
aF0.6254820395686927
aF0.2625786043356359
aF0.4390033187632677
aF0.380425393913966
aF0.6080607791628999
aF0.23405165619746648
aF0.5023303916405177
aF0.5554632255709389
aF0.699406588726941
aF0.5440447343752557
aF0.4401788223173785
aF0.7721084010233851
aF0.24697496629787802
aF0.5623529586699296
aF0.39443713390051466
aF0.58296929134438
aF0.3954619313590891
asg11
I100
sg12
(lp87
F-0.014400959884909022
aF-0.008534113920059152
aF-0.007246590353576639
aF0.0059136341253416
aF-0.010254737041433874
aF-0.016145648746348582
aF0.014546911033880375
aF0.014100611140828194
aF-0.015307517958497666
aF0.021185818238784064
aF0.019119915749608092
aF-0.00992010014102981
aF-0.032319961694612424
aF-0.009196781251260566
aF0.010371957692981744
aF0.009382899378070887
aF-0.01975004327393607
aF-0.014867507206016801
aF-0.0037087311585231437
aF0.025341784069261578
aF-0.029685982286150762
aF0.018344226158279887
aF-0.0013698102056214844
aF0.008030502739736869
aF-0.009813122695525232
aF-0.011507704033331715
aF0.006590465224968053
aF0.004668547874754343
aF-0.00921436935797316
aF0.00148911197812571
aF-0.004555614570220088
aF-0.01612801558538054
aF-0.015520851744659768
aF-0.002888028109722059
aF-0.015176466829512793
aF0.006560124061701188
aF0.004760694808072149
aF0.000608625610911471
aF0.002917540436355036
aF-0.009611973534637467
aF-0.008651042459883672
aF-0.00085119630166676
aF8.875694284474011e-05
aF-0.009208438880259035
aF-0.0029409326416860245
aF0.01848034773415219
aF0.0010886559145465735
aF0.009450802940684979
aF-0.003826109948049658
aF-0.0007545933072236491
aF-0.016278275064457687
aF-0.022751321201414543
aF0.005426788059115082
aF-0.02575967279102452
aF0.015181620286514019
aF0.021712334173040033
aF0.002455315428222683
aF0.01703828247723234
aF-0.0006490153085205214
aF-0.011156072935850067
aF-0.008210557498527747
aF-0.010164415423508606
aF0.0021744425775395595
aF0.01550680171902474
aF-0.0043157787171824525
aF0.003983524764827745
aF-0.018455346956580798
aF-0.0012345114601184383
aF0.014096769223803186
aF0.0035299384988274384
aF-0.0022295154245842667
aF-0.009030055209111001
aF-0.003982348323200047
aF-0.01563147180816525
aF0.01484400376247203
aF0.020966064903562644
aF0.004229496948247971
aF0.0004666075309005881
aF-0.001207049469454484
aF-0.0016296010981816783
aF-0.012881827852439473
aF-0.019992825453632332
aF-0.00842176018895629
aF0.01215255343239944
aF-0.016005494931885505
aF-0.013059952443832195
aF-0.012206621085143159
aF-0.005214064399795042
aF-0.023467348678921463
aF0.01578165461944152
aF-0.00695317064220597
aF0.0042299627382508705
aF-0.018627771061857916
aF-0.014937137995189998
aF0.007973596490011135
aF-0.016072304290411992
aF0.0039055464590101196
aF-0.010978187000360436
aF0.009457970536655074
aF-0.0039545126825064805
asg14
(lp88
F-0.8824328182639765
aF-0.16151602030612172
aF-1.2025996547253146
aF0.022789606179829794
aF-0.42827393211315096
aF-1.2365464331280422
aF0.6959710625468003
aF0.5223874488008041
aF-1.009211037018921
aF0.6292139962364014
aF0.31135557641843903
aF-0.47401990751102235
aF-0.8059458449729066
aF-1.8751053297347706
aF0.4335815138407049
aF0.3128114940448594
aF-0.522638664545392
aF-0.9539194180540037
aF-0.6400164401808672
aF0.5393055876401808
aF-0.6399728128376565
aF0.636372275258337
aF-0.009706683858006326
aF0.33271343678888415
aF-0.15059352295040274
aF-1.0933254570637436
aF0.2559062621561221
aF0.01083156606193432
aF0.38463240443438024
aF-0.38281982559422395
aF-0.2928011441414782
aF-0.8025931258344632
aF0.31130735656979996
aF-0.6063611175452248
aF-1.0401364310768384
aF-0.10971980598824999
aF0.5004098095577978
aF1.1540366029878824
aF-0.4821651214812972
aF-0.42914030833733224
aF-0.26129797214359607
aF-0.003368435964884231
aF-0.42519780401398277
aF-0.473406386395519
aF-0.5912997131539811
aF0.9151776613150477
aF1.243723736784124
aF0.6601560345133891
aF-0.588621646848745
aF-0.7232454459052953
aF0.02838247864711252
aF-1.185398423942898
aF-0.006949586278170022
aF-0.7309029408376257
aF0.5137120535666402
aF0.32265838465209123
aF-0.7067935200573519
aF0.7114905948756698
aF-0.46068120657975953
aF-0.5242600283300082
aF-1.556205534042025
aF-0.41712598550941504
aF0.2530214469076295
aF0.84118968194516
aF-0.9215617695445754
aF-0.6285686179205475
aF-0.6200292243878779
aF-0.4972372313153944
aF0.2988387817715694
aF0.23329471924849482
aF-0.9981857387191442
aF-0.5702206556252726
aF-0.3144048291426286
aF-0.5928693525634582
aF0.7115619607302341
aF0.2884925075671447
aF1.2329179662220933
aF-0.5107604303265377
aF-0.013013695378633651
aF-0.16300352376024826
aF-0.31643339904678475
aF-0.39736807427414556
aF-0.27003264572084107
aF0.5128828555402406
aF-1.032609018088596
aF-0.24520801683433974
aF-0.487743039072288
aF0.4391680638141876
aF-1.1855728872015685
aF0.009321634060105582
aF0.22276962264024175
aF0.8444736866340172
aF0.17663677278052975
aF-0.24043634846114298
aF1.2202548831902775
aF-1.1148114920647452
aF0.2507169492975386
aF-0.42869861151791816
aF0.33497465050703934
aF-0.424410115381245
asg16
I1
sg17
I1
sba(iann
Layer
p89
(dp90
g6
(lp91
(lp92
F-0.30074726987115075
aF-0.13159312900163286
aF-0.3024452312148788
aF-0.21660374529307785
aF-0.16205441519536043
aF-0.12150020965718761
aF-0.060418712606797896
aF-0.15753353870573017
aF0.11610701524302233
aF-0.23815609523517978
aa(lp93
F0.5063001777320892
aF-0.5641622392232084
aF-0.5573729625893097
aF-0.11655110995533996
aF0.7314144704032806
aF-1.1084431409294975
aF-0.8753113996999532
aF0.2276701582815109
aF0.014321201732656809
aF0.7079571013575775
aa(lp94
F0.07705632086539756
aF-0.2734370647946981
aF0.0605243570950533
aF-0.6534680565054346
aF-0.25307008915376455
aF-0.40687271684471504
aF0.41026451942780245
aF-0.587609220178625
aF0.33814715680577645
aF0.19227954012141005
aa(lp95
F0.5181469661049567
aF-0.33353530533972914
aF-0.28616230708744955
aF0.18024680776804164
aF-0.7587421317242771
aF-0.35675282703245687
aF0.17654690588441765
aF0.17020304654775512
aF-0.07699186968041587
aF1.0418513933041031
aa(lp96
F-0.6578052103093801
aF0.19586918194917002
aF0.16832700873599854
aF0.16743639652738157
aF-0.22328625685123027
aF-0.22033586773589167
aF-0.5463474624217287
aF0.20284085395119697
aF-0.2897206565987444
aF0.4270152173891724
aa(lp97
F-0.22476130441317607
aF-0.35323111209227487
aF0.5429090720557601
aF0.42956847304817225
aF-0.25866381426129403
aF0.20868019135938123
aF-0.4472185421843847
aF0.4741079659219479
aF-1.370769730078118
aF-0.05676005735796999
aa(lp98
F0.6363635668534912
aF-0.7526364870243119
aF-0.9672997615290566
aF-0.14349882228204613
aF0.6922343404478329
aF0.052404548716729824
aF0.2828256234754373
aF-0.6152354239531201
aF-0.30358358834856486
aF-0.25543080053548806
aa(lp99
F-0.4613379034698859
aF0.542511310479086
aF-0.1115892786886438
aF-0.48116026731239286
aF-0.3188035886132128
aF0.1354809766450365
aF0.6539661991692897
aF-0.2956697541643893
aF-0.01142312515177451
aF-0.5693281560724194
aa(lp100
F-0.41137377633637107
aF0.494744027851212
aF-0.07088024306040035
aF0.4006144516847775
aF-0.1547466947003817
aF0.21401558401522805
aF-0.11675605963212154
aF-0.21512618788979684
aF-0.7977569709405609
aF-0.547604050435981
aa(lp101
F0.5427246433983532
aF-0.6379443915212183
aF0.2708898735181643
aF-0.19589458281477287
aF-0.5595105579012088
aF-0.6871924378661107
aF0.2824807360559631
aF-0.8348516649702823
aF-0.2724270848366815
aF0.34728770174253887
aa(lp102
F-0.5722527813027425
aF0.7669010914053591
aF-0.9177627493357714
aF-0.46572984268847467
aF0.29695439739581747
aF0.6662461057942347
aF0.2301336576261817
aF-0.3005983618654289
aF-0.6612663344616445
aF0.42474590783546173
aa(lp103
F-0.003619627260998226
aF0.6455330137682779
aF-0.04484160040163362
aF-0.5780633687894505
aF0.2050665655033189
aF-0.4414632599891015
aF-0.04625093511297422
aF-0.21050202188699366
aF-0.19949055712821429
aF0.02041004605456564
aa(lp104
F-0.26257658614866053
aF-0.3404118410173207
aF-0.1376595394760534
aF-0.5466891254692339
aF-0.03647064099431093
aF0.04749717048244734
aF-0.3659141243290266
aF0.9895717724021735
aF-0.4266407564002342
aF-0.16067436752676353
aa(lp105
F0.8059209506478738
aF-1.2293583364163647
aF0.06530356404932161
aF-0.8045095498902696
aF-0.1875714088416034
aF-0.16801742445406795
aF0.11914349751626814
aF0.3048211747395953
aF0.4954421792603061
aF0.17845277486402578
aa(lp106
F1.0048794511125043
aF-0.6572321088210772
aF-0.5035106725626838
aF-0.22327541700134346
aF-0.7357193979151117
aF0.8194837392413273
aF-0.41147928416083196
aF-0.1404974775954779
aF-0.6716625733556882
aF0.7085457981883545
aa(lp107
F-0.2906450018551715
aF0.35655580498324085
aF-0.1617258882266956
aF-0.12710525548934085
aF-0.9633132555799516
aF0.5836079888668487
aF-0.4989370136207391
aF-0.235986659324551
aF-0.042605733549277915
aF-0.19522182193126345
aa(lp108
F-0.25446982815611097
aF0.32194796079045707
aF0.7784542489026296
aF-0.42593484211969246
aF-0.46371774625034656
aF0.48276388619448807
aF-0.12391678001862623
aF-0.9308086210590724
aF0.45496661668344285
aF-0.6974948101233278
aa(lp109
F0.014769393290494828
aF-0.6875013122260621
aF-0.7756710275866481
aF0.32088575800537034
aF-0.49740404217113443
aF0.04388610920267303
aF-0.042798637833713266
aF0.6163955624799499
aF0.10293632956925207
aF0.08323017473511622
aa(lp110
F-0.18232642676117453
aF-0.6068328195996143
aF-0.9017639928105861
aF0.3532039213473779
aF-0.6703052088265946
aF0.8974132987949303
aF0.12142463680703831
aF-0.2617626961591435
aF-0.4508018092614591
aF0.46229004054042394
aa(lp111
F0.4059009863312338
aF-0.13129412065519086
aF-0.5471459566637304
aF-0.6333573638568222
aF0.5082307192479677
aF-0.9284408893254673
aF-0.571254947926735
aF0.7899855407815498
aF-0.29804872939257016
aF0.3447409581709217
aa(lp112
F-0.5744760227491577
aF0.8907420771148162
aF0.20640191070744904
aF0.20114770567648102
aF-0.914304093249129
aF-0.04687260138889023
aF-0.36579703108956685
aF-0.2968068397149215
aF-0.2271172890148072
aF0.4962382289552472
aa(lp113
F-0.28738644562128873
aF-1.0668836585556576
aF-0.18178624213888522
aF0.2379866362697867
aF-0.35148691927783404
aF0.657180422513712
aF-0.034403599661387306
aF-0.16012720789865761
aF0.3613013242239174
aF-0.1776059031284666
aa(lp114
F-0.8545235997317752
aF0.6693314504396545
aF0.4077412110381137
aF-0.1906273933402859
aF0.3278951702960145
aF-0.27610953874976457
aF-0.563582489923759
aF-0.669010436477074
aF-0.0326924489631579
aF-0.6610771843846783
aa(lp115
F-0.25948009574250674
aF-0.039691150782228894
aF-0.10798215667797452
aF0.0208663938295547
aF0.12127998765636704
aF0.5311048393487646
aF-0.26146789792143754
aF0.5176551909563761
aF-0.2515527426943494
aF-0.4417572360868417
aa(lp116
F0.22853237847592422
aF0.2769702495615433
aF-0.19788032225995122
aF-0.15154439580449952
aF-0.24792113940549135
aF-0.3614256026688296
aF-0.2646490084633162
aF0.06296341918929348
aF0.49596077700990604
aF-0.15861816340711768
aa(lp117
F0.23592480048726355
aF-0.31324952982501125
aF0.13635368577825935
aF-0.1513433779139771
aF0.45310466844118524
aF-0.942025743409823
aF0.5697119307359134
aF-0.2208808079087874
aF0.05859403848291685
aF-0.8924734397501953
aa(lp118
F0.470355903421173
aF-0.5008263747690185
aF-0.46376736894588355
aF0.6320805205356255
aF-0.27441187200994466
aF-0.018159271639609162
aF-0.8801983899181947
aF-0.6026498200854338
aF-0.03954502513661329
aF-0.4140423758878756
aa(lp119
F0.16682985476383308
aF0.22268058618283756
aF-0.49139707701504537
aF-0.6279538350022631
aF0.5546880198159032
aF-0.10004106481348854
aF0.2363240446179138
aF-0.21581068609930873
aF-0.8815684897280649
aF-0.8057701480431517
aa(lp120
F0.21826455340275722
aF0.15795147693325048
aF0.16421722281107073
aF-0.5935102760756636
aF0.6049318360219443
aF-0.09503148468406596
aF-0.5064859888611406
aF-0.2871369955424969
aF-0.3679408159573532
aF-0.2941515187858864
aa(lp121
F0.40183989078363647
aF-0.3013963149506378
aF-0.47561920015946646
aF-0.9732041773567532
aF0.5333914664291673
aF0.09422459274680267
aF0.5888399970363942
aF-0.004550706731646226
aF0.11070098055793949
aF-0.6755039102225292
aa(lp122
F-0.12556926290263784
aF0.05461582215250629
aF-1.0285389433336303
aF-0.5374904341885145
aF1.0311742100313521
aF-0.23049950702298974
aF-0.05627148213870148
aF-0.4439565132157031
aF-0.5150901792404896
aF-0.16423428830412518
aa(lp123
F0.5452754128585334
aF-0.1509404019300234
aF-0.2664884412306487
aF-0.39577427988044867
aF0.5054629006516211
aF0.3928533075419082
aF-0.29597077874517674
aF-0.44873226786054443
aF-0.989223839209509
aF-0.1900286834692406
aa(lp124
F0.07398488307192119
aF-0.6162803640560265
aF0.34735165866000606
aF0.23814942505406117
aF-0.5621960206606484
aF0.6953525521466531
aF-0.6839331592682855
aF0.36610235414407866
aF-0.3096955512718013
aF-0.41629253544536454
aa(lp125
F-0.6883273596768321
aF-0.5101818503075258
aF-0.16886506548766525
aF-0.6935894501249908
aF-0.11831599885478764
aF0.43312007301314714
aF0.2829217506515187
aF0.46064604193554426
aF0.25031703633003427
aF-0.11223055345978995
aa(lp126
F0.1560197046790918
aF-0.10146349669637308
aF-0.21332326046217748
aF0.32059707504710017
aF-0.0491638235810965
aF-0.34332525379656
aF-0.20351685093769437
aF-0.3232081814105082
aF-0.24092140440267282
aF-0.07340460483986216
aa(lp127
F0.3897813864985003
aF-0.6403245415379206
aF1.1575325437174269
aF-0.5928808313784518
aF-0.3975461297968363
aF0.34878098644524963
aF-0.31898024949955706
aF0.15819373863104175
aF-0.32263772693090914
aF-0.297859558670223
aa(lp128
F-0.6237173655268711
aF0.21628381646390032
aF-0.9244437780178334
aF1.0617002674195215
aF0.2584256381728886
aF-0.22019351209942867
aF-0.6417105511633638
aF0.48206418033243603
aF-0.4595043948537445
aF-0.792429344338172
aa(lp129
F-0.38347654474707443
aF0.17279559380741502
aF-0.19165010701779864
aF-0.3091137739985535
aF0.08550560630342631
aF-0.20826535550800493
aF-0.5721875904745567
aF0.0835790366376928
aF0.23822283537529787
aF0.22571309733222494
aa(lp130
F-0.8249692968059456
aF0.03843529353971526
aF-0.21163776132751996
aF-0.5931164690255856
aF0.1395236068619504
aF0.4425332578065538
aF0.2727641627501902
aF0.34026979921141887
aF0.1280452526787449
aF0.2621032194288474
aa(lp131
F0.40960298846388754
aF0.1036914384816375
aF-0.044784624055164604
aF-0.07432408183366163
aF-0.2295751359783871
aF-1.2182779301010092
aF-0.40840867109603274
aF-0.3823753705662671
aF0.1633908209189515
aF0.602886128543691
aa(lp132
F0.26462768688483196
aF-0.32656807225012435
aF-0.010698932076625983
aF0.15849906256589402
aF-0.5760441695430425
aF0.06601027633395368
aF-0.08773362059022799
aF-0.7253426105035267
aF-0.02051828654841326
aF-0.11745243339153397
aa(lp133
F-0.7984337358225089
aF-0.2812963811011846
aF-0.8684347212357152
aF1.1040649589460814
aF-0.059077666369885894
aF0.08422406032656495
aF-0.1565319281588899
aF0.3180560440563165
aF0.4599394000957523
aF-0.1411306088661291
aa(lp134
F-0.0011400443301671163
aF-0.02325516560147089
aF0.04936371708451003
aF0.38612139398283224
aF-0.8104756200196137
aF-0.1870251410178633
aF0.4742656692046934
aF-0.807734275630769
aF0.20190508978740684
aF0.5008811227951182
aa(lp135
F-0.3449102005555229
aF0.001155180497089861
aF1.0187549510337048
aF0.5902325014800652
aF-1.1549104560992078
aF-0.7345359008808873
aF-0.8053988027919162
aF0.4065929643864421
aF-0.3551135658725613
aF-0.2030406977198767
aa(lp136
F0.31997937318787234
aF-0.31153563370066234
aF-0.24609829730274987
aF-0.18439029648095923
aF-0.2534873791335623
aF0.5861307548148572
aF0.6613926229077087
aF-0.2413049738197398
aF0.24466870905697413
aF-0.5768580582100215
aa(lp137
F0.3109814806446672
aF-0.09914474370854948
aF-0.013665211131760663
aF-0.4987722026675705
aF0.6544937635495374
aF-0.275869860583767
aF-0.23050791833261894
aF-0.21981836381335712
aF-0.14646446886392298
aF-0.09968127799332584
aa(lp138
F-0.33550938700725447
aF0.7493089957135874
aF0.5756948357511631
aF-0.7981267580957246
aF-0.577528121093952
aF-0.8978279710408417
aF-0.058201429973332705
aF-0.07648180707489728
aF0.7959932592601897
aF0.22361523820872103
aa(lp139
F-0.13369961868225122
aF0.06316335775221832
aF-0.24659097563220903
aF-0.06238483243395353
aF0.12584852647451655
aF-0.3201680936081107
aF0.30829896067609075
aF-0.053060630259323456
aF0.377119435428973
aF-1.0575252578203347
aa(lp140
F-0.8229213040928661
aF0.3506182087392534
aF-0.09735281902847673
aF-0.2192485218626169
aF0.09249258151850487
aF0.6164666062973737
aF-0.09643056277486205
aF-0.16943329392250417
aF-0.15991770456988466
aF-0.37365305493112666
aa(lp141
F0.8076954118251123
aF-0.13286656552538662
aF-0.16797061369687447
aF-0.7459295483948
aF0.3955378449681516
aF-0.3323801245732076
aF-0.2486479801306467
aF-0.03845140078852852
aF-0.3475635313939336
aF-0.3282736028911945
aa(lp142
F-0.0036637031609032243
aF-0.025659404575651943
aF-0.14312844127748917
aF-0.41366455456913187
aF0.9455814289725349
aF-0.4049276947817102
aF-0.7995040419801697
aF0.5148666884657963
aF-0.6859913019137002
aF-0.20034244610577298
aa(lp143
F-0.5894292172061915
aF-0.523142633235184
aF-0.8738634541100031
aF0.05197201934939174
aF0.5149248501164114
aF0.16319231280808794
aF-0.1665157380845277
aF0.6049075672116595
aF0.25721826565255324
aF-0.21117008957160044
aa(lp144
F0.006621233540808476
aF-1.0397165028239805
aF0.24868591092161585
aF0.6565097152633408
aF-0.7779635250356838
aF0.4841506724556448
aF-0.0756818174831649
aF0.17101730488255515
aF-0.9161627248709379
aF-0.371801722533189
aa(lp145
F-0.4509431859849871
aF0.17971167283389813
aF-0.44425415471065405
aF-0.017980760236158595
aF-0.219939814212476
aF-0.27733181309834043
aF0.12095609187551747
aF-0.1316929129620739
aF-0.36332105480790144
aF-0.3670968047434419
aa(lp146
F0.6215554740564186
aF-0.9558386022855675
aF-0.02078207379214371
aF0.0698440446363006
aF0.12313694001428033
aF0.20376093825741118
aF0.607828269840944
aF-0.2640695945086037
aF-0.7036564815913473
aF-0.9428505923260011
aa(lp147
F-0.5989400880174205
aF0.532722301288119
aF-0.46117185015365575
aF0.05801056429449314
aF-0.11555068077460247
aF0.3142452428203567
aF-0.682094522862361
aF0.5413195132394731
aF-0.2691677770154356
aF0.4675084910939298
aa(lp148
F-0.5001961874506212
aF0.7323487052517581
aF-0.3468625041572251
aF-0.7130360459342
aF0.03095233918744128
aF-0.24917512699933456
aF-0.631234498200328
aF-0.12387405745407136
aF0.04284496047029585
aF0.7563421475281189
aa(lp149
F0.4259320126972151
aF0.09275346178054154
aF-0.9929609565997564
aF-0.6235226118724764
aF0.03825949154222031
aF0.8641789788139447
aF-0.5108998904672087
aF-0.09405318890288986
aF0.11089121857230091
aF0.7253502118355664
aa(lp150
F-0.8967571723743577
aF0.6337009230136434
aF0.6136443486942595
aF-0.25408039798950505
aF0.7562217880542009
aF-0.7627570556003221
aF-0.8513628517160058
aF0.2704220039422221
aF-1.1372468925517005
aF-0.6155399719508475
aa(lp151
F0.7232421775118978
aF-0.019601054834276627
aF0.011814676118537053
aF0.09593870988767678
aF-0.9788642390262875
aF-0.9660571796357206
aF0.32576790389485205
aF-0.8705139969217869
aF0.4044418677713776
aF0.711459367615732
aa(lp152
F-0.5415244433318441
aF-0.38728494092615795
aF0.1978324579231536
aF0.2037329385923016
aF-0.4215541696221606
aF0.8856459702953697
aF0.7641011329452047
aF-0.5118270068948599
aF-0.5126725776532354
aF-0.6229010768229725
aa(lp153
F0.6137071718429199
aF-0.4713762923658207
aF0.4648273775628298
aF0.5824228478507957
aF-0.574567911695258
aF-0.2974040806578911
aF-0.9764039834276187
aF-0.4313852538861728
aF-0.7203452076061082
aF0.19865050586981509
aa(lp154
F0.16117996283785452
aF-0.34424210253219484
aF0.2850469249865311
aF0.09111503655420299
aF0.11594499460299369
aF-0.06967454777905469
aF-0.5641710899768844
aF0.3917039632804994
aF-0.5099000166837826
aF-0.31809125135475336
aa(lp155
F-0.4304742361588104
aF0.07722409897013617
aF0.19068280078817618
aF0.2404679112629366
aF-0.288169820427954
aF-0.1897532406614982
aF-0.25439724542005365
aF-0.5425050125889529
aF0.010390299923939198
aF-0.07695470159388253
aa(lp156
F-0.7370209655126212
aF0.6086454663592958
aF-0.6121658475250992
aF-0.09804015090892795
aF0.5471118178037482
aF-0.7083811542844108
aF0.3833082830315765
aF-0.07480129342411065
aF-0.4998260023977579
aF0.2641730095178574
aa(lp157
F-0.07593881326896938
aF-0.17416696733780598
aF-0.638614802899358
aF0.24436800207250273
aF-0.24087828591091
aF0.1382776272187837
aF-0.5825904268074331
aF-0.04263155482211599
aF-0.2644588916287706
aF0.41642338572848114
aa(lp158
F-0.70325107413602
aF0.14348584988647298
aF-0.65130612830847
aF0.9402279660648156
aF-0.9438545957418598
aF0.16335005167399966
aF-0.663942237996376
aF0.8270891124528841
aF0.3695261270652245
aF-0.08360985208635568
aa(lp159
F-0.34267474537964765
aF-0.6581570649813636
aF-0.2925687196536268
aF0.22983965212718302
aF0.07818641086315434
aF0.641710010934303
aF0.6572588267088736
aF-0.3351450200262152
aF-0.358752586884012
aF-0.30472304462966177
aa(lp160
F-0.239703417108641
aF-0.043050379097169696
aF-0.36294089425639264
aF-0.15891299055953104
aF0.17624634180590137
aF0.9398107445604797
aF-0.5410640691205784
aF-0.4437484324921991
aF-0.7443385381149251
aF0.17015452829363015
aa(lp161
F-0.36367255078087596
aF0.4764405824307521
aF-0.7191704220252294
aF0.10692364939106419
aF-0.10783957402565082
aF-0.1931707595492485
aF0.4502114650515025
aF-0.4319270999952983
aF0.006811335106673676
aF-0.1427700728887134
aa(lp162
F-0.018662964877191556
aF0.12235841427766125
aF0.867828262958156
aF-0.3867228554180874
aF-0.3327278719493794
aF-0.524512935998656
aF0.27101341957309405
aF-0.15066240000660283
aF-0.3206813354173725
aF-0.6746218567296531
aa(lp163
F-0.14261535794233948
aF-0.09431902203522867
aF0.1006767989032498
aF0.0007902611873144121
aF-0.2634111908421053
aF-0.26069452516641267
aF-0.7542906473203642
aF0.8245560412727663
aF-0.5645559291167362
aF0.17443111231802202
aa(lp164
F-0.1446345110676318
aF-0.3177138786015353
aF0.02988686739528105
aF0.859577697662692
aF-0.21959913214533874
aF-0.6029832567651962
aF0.23930293772577604
aF-0.27776385442063084
aF-0.4130791122389486
aF-0.8764151323494748
aa(lp165
F-0.18312184264282794
aF-0.13183527807981518
aF0.2336397329650006
aF0.3072111923136866
aF-0.9391096586644512
aF0.23065621814598683
aF-0.19613206190285828
aF-0.7026906163390623
aF0.06443309293591072
aF0.678590249742933
aa(lp166
F0.19195410773361743
aF-0.5503576456564078
aF-0.25769689699157294
aF-0.6204698334008776
aF0.35592951663296285
aF0.07220927962348515
aF0.23298551921293367
aF-0.3316654753921715
aF0.02608187265379142
aF0.4344356239210392
aa(lp167
F-0.09167799663599914
aF0.5580157667939512
aF-0.6537129531720159
aF-0.9898280223086834
aF0.04371199021656238
aF0.5762860293246763
aF0.43323311483059523
aF-0.9777636014294526
aF0.339277043250537
aF0.3348167319949626
aa(lp168
F-0.29680186336523984
aF0.7012769584005825
aF0.11762656067444682
aF0.6104019366449924
aF-1.1336420792602087
aF0.0195764542980053
aF-0.7022689783924349
aF-0.6671751383288984
aF0.4186473888734159
aF0.3501164549001775
aa(lp169
F-1.094702638043226
aF0.2084141351362903
aF-0.9873930781763928
aF0.5456921551530536
aF0.33520906786310817
aF-0.29266709663198276
aF0.3107177893389439
aF0.09079429490327387
aF0.22967953342118982
aF-0.8075092464123864
aa(lp170
F-0.15624613346454297
aF0.01925733658938209
aF-0.504183977984634
aF-0.044655522449609804
aF0.12268640980025632
aF-0.1167951535641311
aF0.009631165265427635
aF-0.4322645774836639
aF-0.18174623481701943
aF0.26809927290952673
aa(lp171
F-0.18547821434751513
aF-0.031228062943652345
aF0.09900759207483484
aF-0.3385171091330315
aF0.27054019268253576
aF0.4095087709229254
aF-0.34046394140625363
aF-0.7878418755850503
aF0.37086976792672527
aF-0.7127632889758138
aa(lp172
F-0.5385237069134262
aF-0.04815104430059962
aF0.09669770220591298
aF-0.002506425717161312
aF-0.04515405187573518
aF-0.16049816626906682
aF0.3044906011518531
aF0.6751558003801795
aF-0.24063360020320232
aF-0.3562171128491195
aa(lp173
F-0.5071497974143501
aF-0.42364729180925814
aF-0.21050061553753247
aF0.5164088637675425
aF-0.4009411740542197
aF-0.25229541006031464
aF0.03422922189906679
aF-0.605938752480301
aF0.8722563830205071
aF0.3616640180306744
aa(lp174
F-0.10866731182723736
aF-0.6744292983640248
aF0.3338851159689874
aF0.40898509405129724
aF-0.24631327023964364
aF-0.050036944309248696
aF-0.13396425846777735
aF0.09554596071969146
aF-0.02349970923986072
aF-0.8155180213365322
aa(lp175
F0.2883008352842378
aF-0.2709865150092531
aF-0.5404547048311619
aF-0.19720593899849112
aF0.024201912111904155
aF-0.19955464518447652
aF0.4413973710685676
aF-0.37054357578757613
aF0.7161813501207018
aF-0.08841742471461297
aa(lp176
F0.028074437144048732
aF0.4303495137019887
aF0.8583697272383274
aF0.6501190826537379
aF-0.7003309533521678
aF-1.025123386381772
aF-0.12463320748283854
aF-0.9057061300719287
aF0.40644839284426637
aF-0.6296972884977067
aa(lp177
F0.35730257968608375
aF-0.6751449810115953
aF-0.885451878717428
aF0.08880750250285184
aF0.03844161294655551
aF0.05814550348433705
aF0.05120472107678249
aF0.6222928710889934
aF-0.6070045265286416
aF-0.2343230133918006
aa(lp178
F0.28514665593282823
aF-0.42852529259272054
aF0.5318552641317323
aF-0.6937484195471063
aF-0.2149666846426905
aF-0.16578882284927285
aF0.12472612950465677
aF0.24097733721489806
aF-0.3188862190732904
aF-0.4156727052392803
aa(lp179
F-0.057230830051551905
aF-0.41867782428386613
aF0.3512998713544616
aF0.11826342106315173
aF-0.08712420473587439
aF-0.787554953471883
aF0.3571205356152002
aF-0.13823907790975737
aF-0.2917907069107221
aF-0.14887114584171185
aa(lp180
F0.29851765115214923
aF-0.16894360909840933
aF0.48983555591356603
aF-1.0053795542809767
aF0.21317797375619538
aF0.42638040831418017
aF-0.02500473882267462
aF-0.7295414304620977
aF0.1436011806935146
aF-0.7809446182149317
aa(lp181
F0.43981375171130593
aF-1.069451191023407
aF0.24788347824279963
aF0.3080068129550105
aF-0.4244711735483698
aF-0.20377027727522
aF-0.5566552016973665
aF0.4107936487711591
aF-0.3881999261323075
aF0.668122626567682
aa(lp182
F-0.47961166317600923
aF0.5206113894136482
aF-0.3222257194806158
aF-0.3266241154712869
aF0.49592807677332557
aF-0.6588696155360421
aF-0.5286196033613082
aF-0.48908753063454413
aF-0.05101187596907082
aF0.9762167178396262
aa(lp183
F-0.47839852314653436
aF-0.2227020460072784
aF-0.3642177471795683
aF0.6092891520581764
aF-0.35952805914739255
aF-0.6230215763290617
aF0.510812956791363
aF0.2248231116028417
aF0.2514146263475005
aF-0.9512556505242348
aa(lp184
F-0.23075799313193837
aF0.17358924995442332
aF0.4717014048720175
aF-1.0504835474554806
aF-0.3061838005258909
aF-0.7503442051400911
aF-0.3580838018232155
aF0.6358256852213989
aF0.4116831497563375
aF0.06253221723194355
aa(lp185
F-0.13062872041023602
aF-0.6057885397478526
aF-0.26923105904309136
aF-0.25829622847202716
aF-0.10289691550121019
aF-0.9439454722470839
aF0.598564933010091
aF0.3768395133143518
aF-0.025859438230941494
aF-0.09893695014522692
aa(lp186
F-0.681085416370822
aF-0.4897141322931262
aF0.48627113023415786
aF-0.41427816985768456
aF-0.34403583470678556
aF-0.08327755973344712
aF0.8591430652199892
aF-0.5832636709125874
aF-0.3139386602437375
aF-0.24180557158412758
aa(lp187
F-0.9123200288424117
aF0.38093612522359677
aF0.1207156830316945
aF-0.3192929919869283
aF-0.07364559496496052
aF-0.14287686334561744
aF-0.798697630184656
aF0.4809417826643825
aF0.6769721089277341
aF0.3855798596337319
aa(lp188
F0.48955770490715517
aF-0.701050721779229
aF-0.6742708371573138
aF-0.9994213262069361
aF0.4233909439775802
aF0.40829952222336835
aF-1.1156602519972092
aF0.49913175175658187
aF0.4844167582426749
aF0.6404184792043967
aa(lp189
F0.385118010374966
aF0.13258427956468835
aF1.2847328380754806
aF-0.7066921613618573
aF-0.5025207483677175
aF-0.6441264078961249
aF-0.2288324989663343
aF0.4585468460651697
aF-0.6484325581549208
aF-0.5513204381690411
aa(lp190
F-0.12709026313649288
aF-0.36820265511394895
aF-0.2817350588679782
aF-0.12816685596980054
aF-0.0629123717006525
aF-0.3222749005900178
aF-0.30290683148459596
aF-0.29088268007340684
aF0.7151842676765514
aF-0.3050196414019669
aa(lp191
F-0.21161739216083505
aF0.31983154906358247
aF0.1593333002974936
aF-0.017690625490385425
aF0.1509519665192676
aF-0.0592697399036129
aF0.3364638855330143
aF-0.7099457923991951
aF-1.1464791353006982
aF0.04508167965272697
aa(lp192
F-0.10689686374118663
aF-0.12770690644420427
aF0.22955225715101965
aF-0.031865095979062695
aF0.2531263649223099
aF-0.40712340574838857
aF-0.1720397342912431
aF-0.28087970202987084
aF0.3308732137079865
aF-0.329254045040476
aasg9
(lp193
I1
aF0.00017834056492080263
aF0.5095089232896487
aF0.014708565534701382
aF0.0021873399747132207
aF0.022651351876639175
aF0.007288593949770356
aF0.016989184581781818
aF0.008485648826037124
aF0.025494178628934615
aF0.002573270475720442
asg11
I10
sg12
(lp194
F-3.179968491091896e-08
aF0.12257841915977431
aF-0.00021315982107325028
aF-4.773990932751512e-06
aF-0.0005014617014607399
aF-5.273640540221735e-05
aF-0.00028372876375707654
aF-7.139521636685445e-05
aF-0.0006333831224113699
aF-6.604681462218024e-06
asg14
(lp195
F-8.631637193131283
aF0.038040279717955566
aF-4.204507456441452
aF-6.122879361128294
aF-3.764623908541046
aF-4.914129339869572
aF-4.058043182023898
aF-4.76085705887964
aF-3.6434803555891206
aF-5.9600010434184
asg16
I2
sg17
I1
sbasS'learn_rate'
p196
F0.1
sb.