(iann
ANN
p0
(dp1
S'layers'
p2
(lp3
(iann
Layer
p4
(dp5
S'weight'
p6
(lp7
(lp8
F0.04996899460371318
aF0.16065195759761408
aF-0.1849384262435242
aF0.05033772681256715
aF-0.025711522365212375
aF0.009775431069648288
aF0.035430157928472095
aF-0.026702755486402635
aF0.06267329001294175
aF0.022562861967861364
aF0.06624285112213762
aF0.11726009375331037
aF-0.0701662240504449
aF0.1789868577569727
aF-0.15061914290344
aF-0.01042807502008003
aF0.05400940224182171
aF0.07021634023814
aF-0.09171530213779905
aF-0.18193388548438894
aF0.07994272748031517
aF0.04561465700596176
aF-0.11058246283689233
aF-0.011074824508158831
aF0.0779591561310019
aF0.09202301403996554
aF0.15046229986133086
aF-0.18846434258649075
aF-0.10811455823001617
aF0.08862923333926631
aF0.0565155425679692
aF-0.11037690317191627
aF0.18477070654766659
aF-0.11849498874471731
aF-0.12112191030674198
aF0.018060822784616626
aF-0.03156412172263709
aF0.1985683404723838
aF0.07159710671996922
aF0.15768482719269006
aF0.10015646269294115
aF-0.025774054983336292
aF-0.13828346463381994
aF-0.06664233022515523
aF-0.10721527499670098
aF-0.02353590332302416
aF-0.12953504409283312
aF0.1676553112450463
aF-0.14971324432766275
aF-0.1026450248365546
aF0.03810741957818303
aF0.1843818194412536
aF0.07818952744952928
aF0.12071412355476407
aF-0.07468030580468119
aF-0.029516250422524065
aF-0.17339648939831093
aF-0.012406101029165173
aF0.0527474012408744
aF0.0013783632662117962
aF0.18383770465464655
aF-0.168837364205065
aF-0.14636206355269887
aF-0.1680213465374256
aasS'output'
p9
(lp10
I1
acnumpy.core.multiarray
scalar
p11
(cnumpy
dtype
p12
(S'f8'
p13
I0
I1
tp14
Rp15
(I3
S'<'
p16
NNNI-1
I-1
I0
tp17
bS'\x00\x00\x00\x00\x00\x00\x00\x00'
p18
tp19
Rp20
ag11
(g15
S'\x00\x00\x00\x00\x00\x00\xd0?'
p21
tp22
Rp23
ag11
(g15
S'\x00\x00\x00\x00\x00\x00\xee?'
p24
tp25
Rp26
ag11
(g15
S'\x00\x00\x00\x00\x00\x00\xf0?'
p27
tp28
Rp29
ag11
(g15
S'\x00\x00\x00\x00\x00\x00\xf0?'
p30
tp31
Rp32
ag11
(g15
S'\x00\x00\x00\x00\x00\x00\xf0?'
p33
tp34
Rp35
ag11
(g15
S'\x00\x00\x00\x00\x00\x00\xd0?'
p36
tp37
Rp38
ag11
(g15
S'\x00\x00\x00\x00\x00\x00\x00\x00'
p39
tp40
Rp41
ag11
(g15
S'\x00\x00\x00\x00\x00\x00\x00\x00'
p42
tp43
Rp44
ag11
(g15
S'\x00\x00\x00\x00\x00\x00\xd0?'
p45
tp46
Rp47
ag11
(g15
S'\x00\x00\x00\x00\x00\x00\xf0?'
p48
tp49
Rp50
ag11
(g15
S'\x00\x00\x00\x00\x00\x00\xee?'
p51
tp52
Rp53
ag11
(g15
S'\x00\x00\x00\x00\x00\x00\xe2?'
p54
tp55
Rp56
ag11
(g15
S'\x00\x00\x00\x00\x00\x00\xdc?'
p57
tp58
Rp59
ag11
(g15
S'\x00\x00\x00\x00\x00\x00\xb0?'
p60
tp61
Rp62
ag11
(g15
S'\x00\x00\x00\x00\x00\x00\x00\x00'
p63
tp64
Rp65
ag11
(g15
S'\x00\x00\x00\x00\x00\x00\x00\x00'
p66
tp67
Rp68
ag11
(g15
S'\x00\x00\x00\x00\x00\x00\x00\x00'
p69
tp70
Rp71
ag11
(g15
S'\x00\x00\x00\x00\x00\x00\xee?'
p72
tp73
Rp74
ag11
(g15
S'\x00\x00\x00\x00\x00\x00\xec?'
p75
tp76
Rp77
ag11
(g15
S'\x00\x00\x00\x00\x00\x00\xb0?'
p78
tp79
Rp80
ag11
(g15
S'\x00\x00\x00\x00\x00\x00\x00\x00'
p81
tp82
Rp83
ag11
(g15
S'\x00\x00\x00\x00\x00\x00\x00\x00'
p84
tp85
Rp86
ag11
(g15
S'\x00\x00\x00\x00\x00\x00\x00\x00'
p87
tp88
Rp89
ag11
(g15
S'\x00\x00\x00\x00\x00\x00\x00\x00'
p90
tp91
Rp92
ag11
(g15
S'\x00\x00\x00\x00\x00\x00\x00\x00'
p93
tp94
Rp95
ag11
(g15
S'\x00\x00\x00\x00\x00\x00\xd4?'
p96
tp97
Rp98
ag11
(g15
S'\x00\x00\x00\x00\x00\x00\xf0?'
p99
tp100
Rp101
ag11
(g15
S'\x00\x00\x00\x00\x00\x00\xe2?'
p102
tp103
Rp104
ag11
(g15
S'\x00\x00\x00\x00\x00\x00\x00\x00'
p105
tp106
Rp107
ag11
(g15
S'\x00\x00\x00\x00\x00\x00\x00\x00'
p108
tp109
Rp110
ag11
(g15
S'\x00\x00\x00\x00\x00\x00\x00\x00'
p111
tp112
Rp113
ag11
(g15
S'\x00\x00\x00\x00\x00\x00\x00\x00'
p114
tp115
Rp116
ag11
(g15
S'\x00\x00\x00\x00\x00\x00\x00\x00'
p117
tp118
Rp119
ag11
(g15
S'\x00\x00\x00\x00\x00\x00\x00\x00'
p120
tp121
Rp122
ag11
(g15
S'\x00\x00\x00\x00\x00\x00\xec?'
p123
tp124
Rp125
ag11
(g15
S'\x00\x00\x00\x00\x00\x00\xf0?'
p126
tp127
Rp128
ag11
(g15
S'\x00\x00\x00\x00\x00\x00\x00\x00'
p129
tp130
Rp131
ag11
(g15
S'\x00\x00\x00\x00\x00\x00\x00\x00'
p132
tp133
Rp134
ag11
(g15
S'\x00\x00\x00\x00\x00\x00\x00\x00'
p135
tp136
Rp137
ag11
(g15
S'\x00\x00\x00\x00\x00\x00\x00\x00'
p138
tp139
Rp140
ag11
(g15
S'\x00\x00\x00\x00\x00\x00\x00\x00'
p141
tp142
Rp143
ag11
(g15
S'\x00\x00\x00\x00\x00\x00\x00\x00'
p144
tp145
Rp146
ag11
(g15
S'\x00\x00\x00\x00\x00\x00\xe2?'
p147
tp148
Rp149
ag11
(g15
S'\x00\x00\x00\x00\x00\x00\xf0?'
p150
tp151
Rp152
ag11
(g15
S'\x00\x00\x00\x00\x00\x00\xd4?'
p153
tp154
Rp155
ag11
(g15
S'\x00\x00\x00\x00\x00\x00\x00\x00'
p156
tp157
Rp158
ag11
(g15
S'\x00\x00\x00\x00\x00\x00\x00\x00'
p159
tp160
Rp161
ag11
(g15
S'\x00\x00\x00\x00\x00\x00\x00\x00'
p162
tp163
Rp164
ag11
(g15
S'\x00\x00\x00\x00\x00\x00\xc8?'
p165
tp166
Rp167
ag11
(g15
S'\x00\x00\x00\x00\x00\x00\xe4?'
p168
tp169
Rp170
ag11
(g15
S'\x00\x00\x00\x00\x00\x00\xea?'
p171
tp172
Rp173
ag11
(g15
S'\x00\x00\x00\x00\x00\x00\xf0?'
p174
tp175
Rp176
ag11
(g15
S'\x00\x00\x00\x00\x00\x00\xd0?'
p177
tp178
Rp179
ag11
(g15
S'\x00\x00\x00\x00\x00\x00\x00\x00'
p180
tp181
Rp182
ag11
(g15
S'\x00\x00\x00\x00\x00\x00\x00\x00'
p183
tp184
Rp185
ag11
(g15
S'\x00\x00\x00\x00\x00\x00\x00\x00'
p186
tp187
Rp188
ag11
(g15
S'\x00\x00\x00\x00\x00\x00\xd4?'
p189
tp190
Rp191
ag11
(g15
S'\x00\x00\x00\x00\x00\x00\xf0?'
p192
tp193
Rp194
ag11
(g15
S'\x00\x00\x00\x00\x00\x00\xf0?'
p195
tp196
Rp197
ag11
(g15
S'\x00\x00\x00\x00\x00\x00\xe8?'
p198
tp199
Rp200
ag11
(g15
S'\x00\x00\x00\x00\x00\x00\x00\x00'
p201
tp202
Rp203
ag11
(g15
S'\x00\x00\x00\x00\x00\x00\x00\x00'
p204
tp205
Rp206
ag11
(g15
S'\x00\x00\x00\x00\x00\x00\x00\x00'
p207
tp208
Rp209
asS'n_neurons'
p210
I64
sS'error'
p211
(lp212
F-0.0025081592903170246
aF0.0017438264029567669
aF0.0010473535468286108
aF0.003457098409381627
aF0.010597150175309555
aF-0.011883642851412699
aF-0.0042609823012239425
aF0.0006111174128414987
aF-0.0038064258552122617
aF0.002468497891562732
aF0.03592488942942155
aF0.0008475207158328917
aF-0.017845495464738514
aF0.01452891638959671
aF0.011018195617648309
aF-0.00312366321751038
aF-0.002707173889320071
aF0.006966833400481893
aF0.017123574785332944
aF-0.029131631617620522
aF-0.03204450330377909
aF0.025823590038842294
aF0.009189110426340458
aF-0.0005901566740802495
aF0.0012871769106430717
aF-0.007029181382395939
aF-0.010972526201726136
aF0.0003622232668890951
aF-0.005203825845243894
aF-0.002150964749410427
aF-0.0004905386485805507
aF0.0033757750268988184
aF5.657358316106954e-05
aF-0.006937379185605004
aF-0.0020956137730611963
aF0.019171208946227508
aF-0.0011522876946780723
aF-0.015081355037068155
aF-0.00029729071551695425
aF-0.0040874628853630485
aF-0.0008413520200415308
aF0.003063177813902673
aF0.03550584519401746
aF-0.009142566024055464
aF-0.008206907071512141
aF0.019130700202944054
aF0.0055685740717207124
aF0.00012508749833185903
aF0.001571522869504534
aF-0.0007840509202228329
aF0.025473269128798423
aF-0.01469299858818729
aF-0.018988092484284014
aF0.00791157300095307
aF0.0014903101525556202
aF-0.007126061176178694
aF0.0003459360470608877
aF0.0012916099138234219
aF0.004413980084693379
aF0.005848613740408236
aF0.0015673353522109644
aF-0.018590515013869654
aF-0.016474914803160278
aF-0.009970467268916813
asS'input'
p213
(lp214
I0
aI0
aI0
aI0
aI0
aI0
aI0
aI0
aI0
aI0
aI0
aI0
aI0
aI0
aI0
aI0
aI0
aI0
aI0
aI0
aI0
aI0
aI0
aI0
aI0
aI0
aI0
aI0
aI0
aI0
aI0
aI0
aI0
aI0
aI0
aI0
aI0
aI0
aI0
aI0
aI0
aI0
aI0
aI0
aI0
aI0
aI0
aI0
aI0
aI0
aI0
aI0
aI0
aI0
aI0
aI0
aI0
aI0
aI0
aI0
aI0
aI0
aI0
aI0
asS'id'
p215
I0
sS'bias_val'
p216
I1
sba(iann
Layer
p217
(dp218
g6
(lp219
(lp220
F-0.20079678111254917
aF0.14782730748406148
aF0.08722227176776988
aF-0.23499499847856017
aF-0.17638076363329394
aF0.06041364042777002
aF0.07286459554517385
aF-0.00891752358861487
aF0.1325676130873495
aF-0.04951752926198711
aF0.09783589609160152
aF0.042620806643433165
aF-0.09604782559181584
aF0.009658819788481985
aF-0.13873315457044172
aF-0.13963109200972315
aF-0.22755156757874684
aF0.05197329232876688
aF-0.23238623609829537
aF0.0715462373136148
aF0.13592698402558379
aF0.014579721019946023
aF0.02179504061966971
aF-0.026171351391321693
aF-0.13786430168774
aF0.01192006436589453
aF0.07314040648693403
aF0.05683985058904546
aF0.07297599676914143
aF-0.080389784025019
aF-0.13544842724108436
aF0.04785851995841194
aF-0.13562969218319787
aF-0.15900447155093297
aF0.028775545500283568
aF-0.23223739715938754
aF-0.12474951877996025
aF0.08569694823370994
aF-0.014809088982644474
aF-0.018291820970608923
aF0.18068931378222772
aF-0.06614301197731191
aF-0.10180239192155373
aF-0.22137448515501648
aF0.09622712652333912
aF0.002387100866690005
aF-0.1787827600573735
aF0.09311951103077501
aF0.09897906461890071
aF-0.03872630840857161
aF-0.04975337633253936
aF-0.11965886181875461
aF0.036942271210158376
aF-0.07584804100958334
aF-0.051215601168821845
aF0.16180363105616638
aF-0.15075528574022404
aF0.0804370611274862
aF0.047922747485535905
aF0.00047843167192166173
aF0.0069726583785272404
aF-0.0044132452167635755
aF-0.059217158920078464
aF0.06443331735494856
aF0.13380302080458759
aF0.04522523465459395
aF0.13583653949341531
aF0.2584363143833854
aF0.12044512333213478
aF0.06001228948751637
aF-0.03787818442356628
aF0.06282018262851138
aF-0.21860651874862566
aF0.10088660832476548
aF-0.12390600287882407
aF-0.030550247094810173
aF-0.15769892203587238
aF-0.04456340753118415
aF0.09812672247014911
aF-0.12233445587777823
aF-0.11305884371733431
aF-0.1296569419993979
aF0.0660058515485029
aF0.026898789547428588
aF0.06507903091568684
aF0.01845952240639204
aF-0.02746099107786957
aF0.006704119889385472
aF-0.15440742708359562
aF0.05352107616860814
aF-0.09104723490662449
aF0.010889763500084432
aF-0.06372387237349388
aF0.09507347624863073
aF0.09476386914837187
aF0.20356772194301762
aF-0.17116827047723374
aF-0.05859510141128031
aF-0.01519048305769963
aF0.23269045034819058
aa(lp221
F0.03635873316137439
aF0.19543124787242466
aF0.09100686125143426
aF0.15300724536636
aF0.19574642565635098
aF-0.12105140162881334
aF-0.05197209190742341
aF-0.1384516313357141
aF-0.016583139054054563
aF0.11980993814906937
aF-0.07496414686378419
aF0.09561989684795436
aF-0.18787171493841892
aF-0.12712726324778637
aF0.020116717897941117
aF-0.0831583148593924
aF-0.027995544731830163
aF0.051957896878025545
aF-0.1425195734349365
aF0.03171534552397856
aF0.0867711446325593
aF0.17559804985659572
aF-0.1605958448510991
aF-0.052082874074324964
aF-0.10983234391834565
aF0.11520996539448985
aF0.09806330087851212
aF-0.16577466108180083
aF-0.0407355991373172
aF0.028113445722791397
aF0.1614213605687047
aF0.13313330765044323
aF0.14185451091250523
aF0.15381134186203493
aF0.12335219310277418
aF-0.1698454580807435
aF-0.020400473600370284
aF-0.10701668842472936
aF0.13626937324077704
aF-0.092460198738448
aF-0.11345535058102359
aF0.14105370967912928
aF0.040509251628641774
aF-0.0569214912285457
aF0.04487947420196861
aF0.053687427881558725
aF-0.12754023132684644
aF0.17340023365472862
aF0.141493299506944
aF0.1746421162242271
aF-0.07604470303820343
aF0.10003600195273826
aF-0.005709089887764529
aF0.02804722238745394
aF-0.031294949050390874
aF-0.13194754328724662
aF0.04158947486812811
aF0.14484521613692158
aF-0.07702731344388587
aF-0.054418998423913595
aF-0.18616017665532816
aF0.18351393683398337
aF-0.17137404392748215
aF-0.10545742685303497
aF-0.140710769477691
aF0.1711955415147925
aF-0.06275092925676681
aF-0.0048652203401104155
aF0.18617135106833216
aF-0.07861174180087667
aF0.15014279252703794
aF0.023319978360833465
aF0.050501986828075496
aF0.10383399232544799
aF-0.005234829945695768
aF-0.03011184659115776
aF-0.02653453409534884
aF-0.12255466830083424
aF-0.184987550270266
aF-0.033967619907912056
aF0.13883480297249523
aF-0.06461486470751629
aF-0.011531467830745934
aF0.12860707559046325
aF-0.005170452289588623
aF0.1686420811437429
aF-0.10037578432352229
aF0.06045503709397754
aF-0.10874935191728348
aF-0.04343393148620239
aF0.08252913875935891
aF0.10723358702648839
aF0.0026417629588296465
aF0.10762591578205688
aF-0.16371944200062588
aF-0.1746754732280984
aF0.1460731886933978
aF-0.18434272002497118
aF0.12224906526196916
aF0.048189444630358874
aa(lp222
F0.15869088498128697
aF0.1130390218059659
aF-0.0009380706682567668
aF0.07772060047515986
aF-0.05153646331282574
aF0.14264075638339985
aF0.0943266542507774
aF-0.13008512852195797
aF0.09593155755381869
aF-0.12166073623344534
aF0.09031900985393088
aF0.2162665734522481
aF-0.0987688657218962
aF0.17070351564239644
aF-0.02985114011420708
aF0.0708318938442102
aF-0.07128884369298602
aF-0.10203701062836332
aF-0.1771674221135293
aF-0.02620238627711769
aF-0.00891023058977517
aF0.07925099509646116
aF0.1410261690822294
aF-0.13337396417099195
aF0.11339446649937772
aF0.09380112234657652
aF0.04776571542570665
aF0.027756841980179463
aF-0.13271556821526775
aF-0.16578907682600214
aF-0.12390489399169562
aF-0.15134589487539118
aF-0.1260930921163212
aF-0.08414943141096011
aF0.16883971948378404
aF-0.14968435295916616
aF-0.14220411329542457
aF-0.14758092801300673
aF0.09862839182803103
aF-0.07446756573439664
aF-0.17605126095661477
aF0.1863476560591534
aF0.10951947568456667
aF0.041765261947304046
aF0.014687535017664451
aF-0.042857027895249214
aF0.08721077782003772
aF-0.164959835622034
aF0.06405001645978181
aF0.0923751034578612
aF-0.050930152188510915
aF-0.12676841194987507
aF0.12038795895195993
aF0.012107936008141161
aF0.23829340699701296
aF0.09304356006776526
aF0.06898190239142471
aF-0.14027965102576198
aF-0.051924414717165655
aF0.08370261491905964
aF0.07440855344201769
aF-0.05662104965191101
aF-0.025163505408226376
aF-0.12259863241698389
aF-0.006335407140522808
aF-0.0377714275881468
aF-0.011510749774778985
aF-0.08451903811183889
aF-0.12879702658152753
aF0.029784405848024432
aF0.012035977674726632
aF0.03702715968705625
aF0.1816152534517521
aF0.13874417943996153
aF0.09258623964652787
aF0.0823448088432829
aF-0.04069956319927841
aF-0.09931436976818003
aF-0.1860335084316106
aF0.06812470773424895
aF-0.0456491934762994
aF-0.03735433152358372
aF0.0008208898671769437
aF-0.11688980799197511
aF0.04066732894337696
aF-0.017809722805308015
aF0.12963377700181777
aF-0.008884744431470713
aF-0.15878910930668733
aF0.15353547201490594
aF0.16604472250133165
aF0.046663415840176165
aF0.1423706288568749
aF0.11596713456029702
aF-0.0760427009963501
aF0.03980793136079563
aF-0.04980225281425083
aF0.007879756608904765
aF0.060662694137431514
aF0.024789891123771054
aa(lp223
F-0.1745571853549823
aF0.09575451919378634
aF-0.07935073397482108
aF0.15647668153308392
aF0.1719177412588115
aF-0.05559178878507973
aF-0.45697585297609616
aF-0.10049244794257844
aF0.15504596535338655
aF-0.16847840611412634
aF0.12538206982861394
aF0.2682477584909811
aF-0.13583675040806284
aF-0.2121921801995274
aF-0.1423708403774552
aF0.2710136635464761
aF0.10712738756251312
aF-0.2785300229676761
aF0.11130367364282626
aF-0.37492802491372956
aF0.3841281521360377
aF-0.018347588218499376
aF0.03544487431306105
aF-0.054458818754567456
aF0.11733525428118813
aF-0.17240132747589698
aF-0.31468639907851115
aF-0.015374124654707744
aF0.0426421286311272
aF-0.19537383506881967
aF0.035744515803468956
aF-0.25038885243858033
aF0.054408205909711245
aF0.08877661854678327
aF0.12172006724342692
aF0.024828054950603497
aF-0.011571230123079576
aF0.25687532092308807
aF0.22724027403682434
aF-0.07499860854309826
aF0.1804958793491294
aF0.16956706833088803
aF0.07402615837239143
aF-0.0020424853961382478
aF0.006618122012897417
aF0.28105181506026944
aF-0.0657217681137148
aF0.011406149758134428
aF-0.16039180876380338
aF-0.05007189654739939
aF0.0425776026567379
aF0.043211020627560395
aF-0.18124425837225341
aF0.2248468993408255
aF0.3887361388581175
aF-0.12305634559465566
aF0.03598745601709036
aF-0.14412003090923042
aF-0.4750505094304486
aF-0.058705425133010275
aF0.26315876546145506
aF0.0014434961503615863
aF0.17345209401243897
aF-0.20218152926593205
aF0.12536495161149164
aF0.34641216384443174
aF0.04615485561161612
aF0.3410559299265049
aF-0.23500124556492127
aF-0.13351230439320888
aF-0.043581364346890354
aF-0.3747570309031924
aF-0.044028219089170456
aF0.01561335395560807
aF-3.400987139951502e-05
aF-0.36838664032266694
aF-0.04740506898521245
aF0.01652537517767945
aF-0.16407632868962693
aF-0.23365403298452217
aF-0.10660342067932586
aF0.1886318863226
aF0.21681338218270396
aF0.24201155340380934
aF0.2825045812567401
aF0.11387406010465331
aF0.06473403922822764
aF-0.021426579653838627
aF-0.08690524247918742
aF0.19356783929872215
aF0.44303716320442904
aF0.12496621907540974
aF-0.17056236195885166
aF-0.19191562523916067
aF-0.15083846755900146
aF0.09000281591441099
aF-0.05172644525000309
aF-0.09543402162121999
aF-0.1016572540373875
aF0.27564318232526425
aa(lp224
F0.12835878981830579
aF-0.08916072194807445
aF0.21418094351763187
aF-0.0028096707048083295
aF0.15592195100318781
aF0.00455044115949403
aF-0.14946451133506924
aF-0.09109461863331593
aF0.3369257472210606
aF-0.31646508841540616
aF-0.21002267780998515
aF0.2027245200316912
aF0.11479021201529921
aF-0.04046590650358472
aF0.1519525349047296
aF-0.0801707667560528
aF-0.07340131076866016
aF-0.16509477350861806
aF0.19039927133262535
aF-0.1124086120073211
aF0.11598996768144998
aF0.1365738845293577
aF-0.16844421883293811
aF0.04554417696797082
aF0.2887602448308383
aF0.1282545267639742
aF-0.24237602661487778
aF0.11195511683171001
aF0.16477794244066857
aF-0.20706975292264054
aF0.03544163127149455
aF-0.255312466816641
aF-0.15506032872513
aF-0.11090517761431325
aF0.13481029153382865
aF0.165919335562159
aF0.05833439621012439
aF0.13824559256382693
aF-0.19017703606262767
aF0.21228118251583844
aF-0.17379630729640805
aF0.06334257504557
aF0.029343283110170343
aF0.43643656942819353
aF-0.10649032665039254
aF0.11551405688406761
aF-0.08274838473257587
aF0.04118541924961013
aF-0.1193140639290669
aF0.10681440076543317
aF-0.0282372670280338
aF-0.10779545492670055
aF0.16971054847936062
aF-0.03714641871067537
aF-0.06659650077021352
aF-0.21994483450026045
aF0.006309064107175174
aF-0.15507402720373026
aF-0.31912687606022655
aF-0.012945163274276889
aF0.13510686459889545
aF0.07195080571206855
aF-0.060535644691392276
aF0.07302506072544879
aF-0.10645914631833045
aF0.13632961351553932
aF0.2108524092588949
aF0.22634022631601997
aF0.2749164626028868
aF-0.12585895786152196
aF-0.10176931120224617
aF-0.260518114429868
aF-0.356241118756276
aF-0.3133191293130503
aF0.04973850590581602
aF0.03402097043480989
aF-0.2662045289440454
aF-0.303643026868024
aF-0.027281422528102086
aF0.0032269275061887464
aF-0.04493593232419955
aF0.012269342171459365
aF-0.24503595051352856
aF0.18089386677681096
aF0.045381828272048556
aF0.018944141164167316
aF-0.010320268302749824
aF-0.05201813137335495
aF0.09863683400425781
aF-0.2263992880903072
aF-0.042653743207768706
aF0.054980361242149826
aF-0.09565962764800798
aF-0.10470167798942089
aF-0.15447466573122798
aF-0.17016560345530662
aF0.11178741837278863
aF0.10402540637671556
aF-0.19268347643081501
aF0.30794836740197973
aa(lp225
F-0.04920295103712125
aF-0.18350879174431173
aF0.055630910019459565
aF-0.1724168584350405
aF0.258868007205906
aF-0.06905408245479494
aF0.1528626370808819
aF0.042483634972501905
aF0.29899995318472117
aF0.08392025984172867
aF0.39432124664679946
aF0.04971443326580278
aF-0.24952666216324282
aF-0.381984901921915
aF0.12676957707804243
aF-0.026777926803651736
aF-0.15049534034184273
aF-0.37104597177076337
aF-0.2398977337430836
aF-0.3152064074562487
aF0.2922697781422985
aF0.37495785252488234
aF0.2787793167880923
aF-0.1763998144097024
aF0.20336615966774974
aF0.04483793697978123
aF0.0454526249201768
aF-0.16699422736539252
aF0.19221599889532184
aF-0.4100527462630691
aF-0.05385894463056432
aF-0.5757471862008909
aF0.070252456470658
aF-0.43469251788811303
aF-0.23032823980430125
aF-0.014535226029379
aF-0.27692912250414875
aF0.01882279657204329
aF-0.12246627469544934
aF0.1856902778249698
aF0.011509126401117389
aF0.037891394793930194
aF0.06951858732838491
aF0.2130165089056023
aF0.025966509748315818
aF0.11711186870391233
aF0.08594535896661212
aF0.2513778074579045
aF0.12334546804775419
aF0.288385081935827
aF0.014141959080363533
aF0.14449994923188597
aF-0.1674448398271576
aF-0.05804483613140158
aF0.22112291747305363
aF-0.14348102444017993
aF-0.08366517015679881
aF0.027645783969733047
aF-0.3294466197564797
aF0.1716531220067715
aF0.4613686216128813
aF-0.1010850460543363
aF-0.04104020498580792
aF0.009333387858599862
aF-0.14622800657488838
aF0.0342041430458519
aF0.44022614301097973
aF0.18346071286836887
aF-0.1526650880094676
aF0.38658645796090835
aF0.08960422144178862
aF0.25708062785592367
aF-0.2813176747903229
aF-0.25934642816273434
aF0.11221842466305218
aF-0.29129648550070253
aF-0.024231538646836148
aF-0.1883750309591807
aF-0.0675809246948384
aF0.1185030976572389
aF0.15796941786035373
aF0.0702443478801542
aF0.0727591703836666
aF-0.2638438077701225
aF0.13922868924575083
aF0.1334203480709919
aF-0.0438363683633378
aF0.07325024652870399
aF-0.18644327574383016
aF-0.10822227783872582
aF-0.1577075619996191
aF-0.15910532161508875
aF-0.2826109303474997
aF-0.3128725318078226
aF-0.0528449950288153
aF0.018903342342592586
aF0.198898495931264
aF-0.20240718525808218
aF-0.16090897488400457
aF0.2997265151092642
aa(lp226
F-0.0030098929041221705
aF0.18391286768924808
aF0.15084744213064882
aF0.20329057797871328
aF-0.19666435969914328
aF-0.5441577453634674
aF-0.21768568581890402
aF-0.27200665538588126
aF0.26233537419382835
aF0.30986368710731443
aF0.0038435065290922544
aF0.2564061018353599
aF0.1953852293782509
aF-0.6484965419309368
aF0.1614604668231107
aF0.7062880739792273
aF-0.22156071509850023
aF0.05713085274397936
aF0.21551014349027817
aF-0.2904404643903252
aF-0.02246460078996878
aF0.11128606677111297
aF0.10944545622454632
aF-0.14714473972721417
aF-0.4801127720151647
aF0.3820467764835846
aF-0.4407685822727362
aF-0.34411905804862214
aF0.13692329455659252
aF-0.22637950071768756
aF-0.055111864477362195
aF-0.09531972857057762
aF-0.05414051845129951
aF0.02397962171769689
aF0.18206246065959064
aF0.44279894512539253
aF-0.03114840446079324
aF0.19613141569914033
aF0.11962039815607801
aF0.5465907306549197
aF-0.06638941080551926
aF0.2550592611804369
aF0.25543207308429167
aF0.16207687612142932
aF0.21825004836769296
aF0.6072905118013256
aF0.05670162428249617
aF0.10118293802099033
aF-0.21781371104800026
aF0.16649364382215884
aF-0.15703548970379194
aF-0.22635158251584986
aF-0.2945510846069826
aF-0.18366544200238272
aF0.23824100386557662
aF0.01155218721176978
aF0.2132816877123146
aF-0.30893830123558347
aF-0.34647811602531103
aF0.24740714582234408
aF0.32356612856347156
aF-0.14976247642179558
aF-0.042261720535147713
aF0.100870020966345
aF-0.03143962682291823
aF0.285713272112222
aF-0.042825002157447646
aF0.1574405789340122
aF0.10163262868572885
aF-0.10478753884048812
aF-0.1957781754398526
aF-0.06521836757937974
aF-0.4403204112739024
aF-0.14499831936683716
aF0.10356869087726828
aF-0.46434098247017885
aF0.4882133045777153
aF-0.025300190219706184
aF-0.377380082223027
aF0.1622347007592857
aF-0.1634480265052427
aF-0.1728190058935768
aF0.28215129342041695
aF-0.3266377333119411
aF0.18711527945916415
aF0.1940211526606728
aF-0.35354269390582277
aF-0.060601147055496955
aF0.06541007620736541
aF0.21427864509593994
aF0.0662207934238211
aF-0.1429745457467532
aF0.003954111579735347
aF-0.4514706673583268
aF-0.32504098884641036
aF0.03749285785810001
aF0.03437508972601859
aF0.05841468912917969
aF-0.06333006050681375
aF0.41623111474345126
aa(lp227
F0.007082790699909098
aF0.08807344865759852
aF0.21051130818769193
aF0.0894525523018657
aF-0.08294864131300142
aF-0.10170134437768848
aF0.10244811454762036
aF-0.1295890515583291
aF0.15428723505887912
aF-0.0349277277067637
aF0.22505824480078573
aF0.14070105047802606
aF-0.19537328179603858
aF-0.510152654896761
aF-0.049195124603251414
aF0.30101637568368306
aF-0.14329005770272907
aF-0.2424153013331836
aF0.006256417565478428
aF-0.21507036242056768
aF-0.04283127159690214
aF0.26229955899064183
aF0.24122138393786383
aF-0.0617311315503466
aF0.0945334205220485
aF0.33979763815647146
aF-0.12230011526742646
aF-0.09674673467495433
aF0.10464936323145412
aF-0.3420253839243656
aF0.1362371281102109
aF-0.1779226967307698
aF0.07949166950884479
aF-0.19608756916716266
aF-0.257125413600038
aF0.20365863362111916
aF-0.1262510400159571
aF0.22787109896518273
aF-0.09690777023517724
aF0.3468503777908038
aF0.12714989999575727
aF-0.0886259714208032
aF-0.20886066983667337
aF0.0513606451835288
aF0.23621779921136699
aF0.5067324046087648
aF-0.2813522303365317
aF0.19757000905581923
aF-0.12683997839230293
aF0.33547246954605475
aF0.044998147647951146
aF-0.007753804200879126
aF0.03570436111558821
aF-0.1941219848086054
aF0.19817496287726513
aF-0.046451705679575093
aF0.020772301867355354
aF-0.27324129493797816
aF-0.21304736081889447
aF0.14157246409333707
aF0.20654809297870005
aF-0.10021203320585477
aF-0.1198852940234421
aF0.1984105385988895
aF0.16180033561039853
aF0.4236695543808355
aF-0.09137860744065655
aF0.1705339254586354
aF0.13628039629603675
aF-0.2537660098847764
aF-0.035880236098353294
aF-0.037489129496046936
aF-0.18009214441310964
aF0.00133452405556399
aF0.025226222065689495
aF-0.20436422244616095
aF0.0616633276160682
aF-0.24720168264866518
aF-0.2757010341993544
aF-0.13919102779777634
aF0.046379225722276235
aF-0.22175766518435927
aF0.12113897919877707
aF0.13558281462751035
aF-0.11343045720444869
aF-0.22662602730592768
aF0.03614764473350316
aF-0.009819764006604443
aF-0.038949794798330675
aF-0.13409975995642565
aF0.2677593452717375
aF0.023522146098075344
aF-0.03403640844025525
aF-0.02310336164145408
aF0.007096901860313622
aF-0.0503394501113608
aF-0.03644283012309614
aF0.10330852451492945
aF-0.04310721785022635
aF0.43822118933539844
aa(lp228
F-0.15650434465507349
aF0.1512052772091224
aF0.13758499856182388
aF-0.22313097757796022
aF-0.07708471040361205
aF0.17624518323643626
aF0.11386694438621543
aF0.15633283001029444
aF-0.02168294763046417
aF-0.016504538814436417
aF-0.11139154634902798
aF-0.07722163069279527
aF0.003893662694016276
aF0.12460413575118992
aF0.08200037834198765
aF0.22876013808296666
aF-0.09975789315369463
aF0.032451078915277765
aF0.038120677965461
aF-0.24027714148983223
aF0.07651623461450331
aF0.017127796297101337
aF0.14067047805693844
aF0.12449904222092417
aF0.09212466365879296
aF0.03547476233306309
aF-0.10873797237722382
aF0.00581406400008807
aF0.21406103039853355
aF-0.15145607817586507
aF-0.17516100412200536
aF0.09162880764857918
aF0.1781078875721931
aF0.2103808792516252
aF-0.2165649809700002
aF0.0893635757150668
aF0.08865860548514957
aF-0.13748161661221026
aF-0.02234813059372191
aF0.22132079414508954
aF0.010705927268060704
aF0.010345798268779864
aF0.10470141005672924
aF-0.06863631027404819
aF0.20943289213550303
aF-0.09028627673722218
aF0.13148947084753232
aF0.03489513590853078
aF0.014731399251799573
aF-0.050392937377049
aF-0.03141923612525265
aF0.001635950125182828
aF-0.11734386863930596
aF-0.1753370732848857
aF-0.0987389863680174
aF0.08691489106573819
aF-0.055509921097656414
aF-0.11830570577914806
aF-0.003464245703230378
aF0.12217592665734371
aF0.11933730514740781
aF0.14094075726018226
aF-0.1664782167216627
aF-0.07683123988415431
aF-0.07802928311396391
aF-0.005507750199134902
aF-0.07148187328523894
aF-0.03879529164348505
aF0.14297422062000234
aF0.18802630622044367
aF0.03979364383008557
aF-0.01250330024923051
aF0.2093525448064683
aF0.02001057754967908
aF0.042519036570224995
aF-0.047735315857903936
aF0.0178648607942597
aF-0.1371167484768771
aF0.17797758853204787
aF0.1939132731747462
aF-0.04856754122232096
aF-0.1592312424494242
aF0.025541005809360057
aF0.2031975727222477
aF0.006305376757777292
aF0.03323025931193988
aF-0.06980122300109022
aF-0.22832192753614713
aF0.20373000460339225
aF-0.04634766639726499
aF-0.09206818388368686
aF0.18976907980286417
aF-0.06535504975123023
aF-0.04647374550238266
aF0.0908015888332883
aF-0.1572390535580507
aF-0.16029475578826657
aF0.06687253402104576
aF-0.10593324184148446
aF0.25804709235868106
aa(lp229
F0.14854481507872022
aF-0.020354148352480412
aF-0.16271705078198453
aF-0.08657168446008182
aF-0.10731892959332037
aF0.145195492046156
aF-0.057163346876667014
aF0.011363777030587824
aF0.0681930821371316
aF-0.05627601313140215
aF-0.038613463827598976
aF-0.08575691479409346
aF-0.0757122525372139
aF0.03988985740497049
aF-0.05661956346338483
aF-0.13510236298580386
aF0.08067296259785142
aF-0.13714599121387208
aF0.13209495814722233
aF-0.09321895279975424
aF-0.19554858135722203
aF0.09498730617530851
aF-0.06138462562773586
aF0.15893530262409877
aF0.056898137872495876
aF-0.04168068835597891
aF-0.04638089956643261
aF0.057617000089982905
aF0.1941829379403472
aF0.16652590833913763
aF0.026496665575395796
aF0.12305246113429343
aF0.1645193602426808
aF0.12905178298749762
aF0.06299640753254357
aF-0.19480948072414883
aF0.1719924968772134
aF-0.18364517074536493
aF-0.19876173846800632
aF0.16808806172463572
aF-0.18709301199745237
aF-0.1991838123943543
aF-0.08150964648320647
aF0.04890606362517182
aF0.1263853802802956
aF0.06757836583423252
aF-0.18369046834240169
aF-0.06797640898787445
aF0.03809134613538071
aF-0.13786661267057781
aF0.1831065503078859
aF-0.13289644292826389
aF0.1799827875990036
aF0.015197618747309549
aF0.02225800930887548
aF0.0683736398553677
aF0.19472114404197535
aF-0.1300478923273914
aF0.19132233821445951
aF-0.16344789798532086
aF0.05283878980512934
aF0.068421044936062
aF-0.10919076551904078
aF-0.15393480666423892
aF0.19523178851420175
aF-0.14259947729471326
aF-0.1778638548901646
aF-0.0549621589990825
aF-0.012510097459177728
aF-0.023596077416292993
aF0.06338705947173347
aF-0.04221174966759854
aF0.08645760571670427
aF0.06512229307322298
aF0.08403873731298554
aF-0.01179382198313471
aF-0.10067034504087842
aF-0.039672944474337855
aF-0.014328356537097502
aF0.1728650857631427
aF0.07053031319835489
aF0.17098964359422059
aF0.0849180953387139
aF0.0714674730405069
aF0.03203554940455211
aF0.17790101373944162
aF-0.18760333673331714
aF0.13040305766032986
aF-0.0007873358457611025
aF0.18865058985256208
aF-0.09436832908973619
aF-0.03314155165589462
aF-0.07809670554302438
aF0.10061280095648228
aF-0.19737727858762347
aF0.0562316255473322
aF0.08895384223019867
aF-0.17070563092336785
aF-0.16107723973081847
aF0.07169849741308126
aa(lp230
F0.0883821240152525
aF-0.12111583028511275
aF0.022322981497706236
aF-0.19111525311035335
aF0.2424440360693782
aF0.12513110908670613
aF-0.17046191656117832
aF-0.2021354412857439
aF0.15491671095415144
aF-0.05550675866351624
aF0.01420303404770743
aF0.06831756349193935
aF-0.22071021757941403
aF-0.12395042234701255
aF0.14082937960744182
aF0.15737122337619888
aF-0.09358636350902692
aF-0.047491211502920544
aF-0.0003328574368089668
aF0.06928511227804954
aF0.012846794775980261
aF-0.08529010888631552
aF0.15830665715934122
aF-0.2141303642153295
aF0.10320615054147587
aF-0.23190080152086526
aF-0.04186642080494298
aF0.15759474493456518
aF0.15344003262400444
aF0.010616604088695095
aF-0.180586044723125
aF-0.3800623068175596
aF-0.06803463977981483
aF-0.09135282100385586
aF-0.029011652182166663
aF0.12304795913415979
aF0.03536483220505722
aF0.0514099173791846
aF0.16338114200645013
aF0.15610557770773487
aF-0.07628433145769609
aF-0.006691524064655597
aF-0.005743875183585447
aF0.1966706021277535
aF-0.08301364803040402
aF0.12167815762028295
aF0.24925698762288379
aF-0.07920182270446391
aF-0.21778335557314354
aF0.15752268768737845
aF0.1228181870838256
aF-0.12896469367761293
aF-0.010852256704200678
aF0.1263676868164987
aF0.19715760426097495
aF0.22642274495516376
aF0.1629598060765762
aF-0.07498623085874963
aF-0.18362768147709915
aF0.008125015957651024
aF-0.03882287371812605
aF-0.03200664814437262
aF-0.031595607057930734
aF0.07363594714829656
aF-0.06029992928594418
aF0.1168714026574647
aF0.061554921231157016
aF0.239396280499309
aF-0.028542534468984325
aF-0.09605988294530761
aF-0.02334519386599353
aF0.0034821693952945595
aF-0.02189034416403986
aF-0.09365692696052028
aF-0.17447234759713365
aF-0.0148652679712379
aF0.1138658061110632
aF0.14738521080205222
aF0.1164401462652549
aF-0.11041919099263489
aF-0.0005984657744066324
aF0.08583331983386079
aF0.2356134260366498
aF-0.002731240910109851
aF-0.08344631721513782
aF-0.29935835319887033
aF0.20448588944908752
aF-0.18247730962496378
aF-0.09528635866828299
aF0.221032205323567
aF0.13900273591845788
aF0.15131349787264833
aF-0.0274939856041779
aF0.19668780438240466
aF0.20276628269481717
aF0.0850285956439656
aF0.07355069364069537
aF-0.003552979996259337
aF-0.08892706520911192
aF-0.11475384315398206
aa(lp231
F0.21883012530443538
aF0.07694382714544065
aF0.4143560596273082
aF-0.05323132945444587
aF0.4152595897528709
aF0.19241416647562112
aF-0.2643305397977694
aF-0.14205981652369867
aF0.22482837023926544
aF-0.16360265575201072
aF-0.19555498178396363
aF0.25300100251071883
aF-0.0628189514163004
aF-0.1488979113353564
aF-0.4163300623305804
aF-0.10077982753482595
aF0.39784102282846623
aF-0.31201302831177113
aF-0.10565829785011421
aF-0.02613001815995921
aF0.4160539902591821
aF0.2854082703081321
aF-0.06686603814223452
aF-0.30466171425406857
aF0.5581539234026264
aF-0.02177439974731144
aF-0.0055617915900073485
aF0.21911504578923682
aF0.3118371140566578
aF-0.24191711154132997
aF0.2418307216334752
aF-0.38449963910366813
aF-0.3279038094883141
aF0.030817026457695493
aF-0.18025928427596669
aF0.2103167507094357
aF-0.04158665932747152
aF-0.22163140097839662
aF0.07184101308180217
aF-0.03211150762146329
aF-0.0077330264373891315
aF-0.3617927176993208
aF0.07984590733998587
aF0.03025161796734187
aF-0.4907698269982564
aF-0.3316111910459026
aF0.25366610573066994
aF0.022625255540744144
aF-0.40695618022167707
aF0.16457839620177586
aF0.07641963440473892
aF0.27517595779559456
aF-0.05676362012609244
aF-0.13492323061594047
aF0.4146925633356385
aF-0.2129948493228834
aF0.00215881055952435
aF-0.09645256565835036
aF-0.6922247026635384
aF-0.07199032113169984
aF-0.1700061767311034
aF-0.2689370313366158
aF-0.08352409546469497
aF-0.13525470885155735
aF-0.2248356299185567
aF-0.018488473189800018
aF0.4850569042848458
aF0.1269931845157289
aF-0.3397375677719497
aF0.07689152640986995
aF0.00594762321473568
aF-0.24629481765582484
aF-0.4090519632372163
aF-0.38173795814599265
aF-0.38202845922159184
aF-0.24992859748019003
aF-0.16428597348992238
aF0.1387986225928566
aF-0.13246156732828704
aF-0.12735901783631684
aF0.1178239650823984
aF-0.0726493431867875
aF0.08044981494053427
aF0.14751162476568758
aF-0.2110073199186538
aF-0.06484239744234845
aF0.1536473905511013
aF0.009806883993279888
aF0.11772535386700697
aF0.2648248757045815
aF0.5718651894409466
aF-0.24712394172337934
aF-0.2669807613064914
aF-0.3225744455646982
aF-0.021519447427145844
aF-0.1651734553077501
aF0.21329072371643845
aF-0.07400421232832247
aF-0.31814097040576916
aF0.6513471318003834
aa(lp232
F-0.1381967508918871
aF-0.04289876498723526
aF-0.03236270266371859
aF0.031111181329316038
aF0.2071421912951646
aF-0.0540060236071584
aF0.02088101307364191
aF-0.061445700798469303
aF-0.019427030133054014
aF0.02024822583657061
aF0.06899312032125222
aF-0.15876481915751955
aF-0.2955609277205592
aF0.11259604908407342
aF0.05526679440082151
aF-0.20054411041095868
aF-0.05723632613512437
aF-0.011907558856929018
aF0.07068317507185376
aF-0.18272316526827254
aF-0.15833656330609
aF0.03366714763220062
aF0.09333431303773217
aF0.09447541349637842
aF0.17424418730174043
aF0.12252034994413138
aF0.15940377215164267
aF0.17061253878121077
aF-0.07627116051637588
aF-0.04662607876856097
aF0.05332948251297406
aF-0.10993360968015752
aF-0.009234513494799711
aF0.14283932365765728
aF0.06104036907005518
aF-0.06940718449418586
aF0.12426333875843801
aF0.03784683941998293
aF0.011849818864669612
aF-0.21656333009885045
aF-0.015506970949240133
aF-0.015752533996289616
aF-0.0406048533363304
aF0.11342959471747677
aF0.13340018340003015
aF0.15586102142451272
aF-0.1350640920098858
aF0.0502786798011279
aF0.27012550061099505
aF0.13748219167930173
aF0.10394640254943786
aF0.12150928659131768
aF0.08144641182877103
aF0.006540715633554156
aF-0.17228429212909216
aF-0.16499704046419209
aF-0.06496920718733236
aF-0.03873837641546384
aF-0.14119996589989567
aF-0.03483703187186954
aF-0.040543756230888246
aF0.005102824865573587
aF-0.19127560943177485
aF0.030417727154258268
aF0.049993961329003744
aF0.14563685549641497
aF-0.004181063950506778
aF-0.15700019221149844
aF-0.10441247665854224
aF0.06102859024524758
aF-0.16147591393016356
aF0.007209617026324299
aF-0.16185972523646977
aF0.07706219266078124
aF0.12676244742248366
aF-0.05539544252600228
aF-0.20548184439537828
aF-0.003640621295570995
aF0.006072473160433508
aF-0.062286758798348864
aF-0.0946906586151789
aF-0.08038992185968688
aF-0.051928837114259656
aF0.22434706100879828
aF-0.05186432189779725
aF-0.1567425554391212
aF0.12849959601753286
aF0.058757264483945505
aF0.06860776544800065
aF-0.19881255286533794
aF0.06932407811557144
aF0.15383224319901362
aF0.021200404043306958
aF0.1548469290784514
aF-0.2314473861299681
aF0.003253180503793709
aF0.2699822498586319
aF-0.19171853672387895
aF0.05272371858375819
aF0.1409461507539974
aa(lp233
F-0.0191769753666218
aF0.01100354904945778
aF-0.10865265204574535
aF-0.3605574816939605
aF0.06921667736519087
aF-0.11810615400630996
aF-0.04497241602673604
aF-0.27404918618382196
aF0.5193947481844747
aF-0.05252700865243492
aF-0.1496482526017283
aF-0.008787092667634186
aF0.24699037325533524
aF-0.32670289917143125
aF0.19410206959379034
aF0.19231724800214045
aF0.05130912874365699
aF-0.31748051401816596
aF0.043383426588315434
aF-0.23586714892722058
aF-0.05625390727567416
aF0.3012211812068688
aF0.15799233580413202
aF0.14557581937454725
aF0.2255398864144151
aF0.24375774220982982
aF0.05234592621383021
aF-0.3162623372402585
aF0.2540411207337675
aF-0.13691596297581182
aF-0.04903343023578389
aF-0.20211999212420875
aF0.26035023620292363
aF-0.18778764362990913
aF0.13751112494303405
aF-0.14187892151012452
aF0.07532835128279533
aF-0.0569937550775458
aF-0.0856597082857367
aF0.38820859642391625
aF-0.3877382514749148
aF0.22777931732912288
aF-0.3052780631124422
aF0.0011514641523350743
aF0.34992783421909174
aF0.17391325755952913
aF0.18558865612705883
aF0.07002858670965918
aF0.2167272444780864
aF0.05774795113268113
aF0.1375255163748067
aF0.07830459567066286
aF-0.07369544404753793
aF-0.4336690571002236
aF-0.22168796569057309
aF-0.22555312260535446
aF0.19833094257555334
aF0.012900306980817277
aF-0.3577751479020399
aF-0.6038960356622751
aF0.1742846059435006
aF-0.1359392805916955
aF0.09917829831536557
aF0.0015216661521875066
aF0.20738596454648509
aF0.08305319784145151
aF-0.1862090256724088
aF0.3533569671204642
aF0.16858795581000166
aF-0.26431730427777755
aF-0.03920136436115843
aF-0.30953388334077614
aF0.1917967158999351
aF-0.34275739009986933
aF0.2570253457315518
aF-0.22501707570668192
aF0.06113131343439927
aF-0.3622847416726524
aF-0.2819521274667408
aF-0.027175848442633023
aF-0.009144310664693216
aF0.13070145250436635
aF-0.279206336809502
aF0.18167787309995082
aF0.061699552180331935
aF-0.15772709710564783
aF0.09714708222251238
aF0.06946259122588652
aF-0.07883164591091356
aF0.04572833075592674
aF0.2700627923178108
aF0.10212462995996112
aF0.0036002588058407915
aF0.323341654606127
aF-0.01666486466013383
aF-0.2110175149336986
aF-0.1119011497057811
aF0.08579389705556809
aF-0.4586727724870527
aF-0.006551668383406727
aa(lp234
F0.15191966693836334
aF0.07386495707228262
aF-0.14612880990755284
aF-0.05921332576190813
aF0.12059362068001514
aF0.025182840853692035
aF-0.0753586470952277
aF0.09199149221926708
aF0.29150428881301793
aF-0.03595990929187205
aF-0.5561706523950745
aF0.17458713126113506
aF0.4087045897926293
aF-0.09151395175395706
aF0.2897893599976461
aF-0.09081686188402922
aF0.05049374030131809
aF-0.40912450852084054
aF-0.4102493821654964
aF0.4296616979447048
aF-0.00736222484704666
aF-0.0005056608766404821
aF-0.10922799632751025
aF-0.11467564363476844
aF0.4669588339776161
aF0.4700018075815806
aF-0.019270907281163204
aF-0.27877910216853774
aF-0.15699986027694238
aF-0.22297067663650272
aF-0.1753539786664409
aF-0.11114076059938008
aF0.029939453107984643
aF-0.08987666302422676
aF0.32059891445435673
aF0.14665799360898218
aF-0.10918186470385308
aF-0.4935139947079449
aF-0.38230353237419745
aF0.25946616636130576
aF-0.2824242284380422
aF0.24156930470413787
aF-0.08729693498778965
aF-0.06607766330423563
aF-0.15425320232880263
aF-0.2301747896981226
aF-0.0007159341273558658
aF0.34832606591928966
aF0.01902053441151471
aF-0.09285844814040073
aF0.08635831865180624
aF-0.12561867631544088
aF-0.14917239320506445
aF-0.41365988770917794
aF0.01443077453483788
aF-0.2699338807791612
aF-0.02625539922714013
aF0.061561187604633784
aF-0.5101766901568235
aF-0.44603507258159375
aF-0.2999456461985892
aF-0.4459203389440296
aF-0.05342406994266422
aF0.09139139327699938
aF-0.275537825934048
aF-0.45341881625944286
aF0.364565538210711
aF-0.21673975561954034
aF0.035392169338421965
aF-0.0008112162908399491
aF-0.11778964295530842
aF-0.08884775245952832
aF0.10899919943784825
aF-0.5103189714372199
aF0.26404139981423796
aF0.24653312748058578
aF-0.27392599979131255
aF-0.04896418498093693
aF-0.13519257145530553
aF-0.010686580775611352
aF-0.07797884384962382
aF0.2113445621882529
aF-0.16711309072776595
aF-0.027230955248047275
aF-0.2353359051414604
aF0.29349108363498877
aF-0.27271413784328064
aF0.30629555562286037
aF-0.15018959182584043
aF0.12314537610683751
aF0.42598870100877023
aF-0.3312835482807684
aF-0.05508769017336645
aF-0.10377340104178866
aF-0.34027619670491155
aF-0.25179923690677924
aF0.36086533953861116
aF0.09857594223207547
aF-0.12834061929241375
aF0.28600753217581826
aa(lp235
F0.019594097670676488
aF0.015418800059579673
aF0.1400881165542049
aF0.10496435661117105
aF0.08102030178903971
aF-0.004751665402577197
aF0.00897090539895172
aF0.2552991413733123
aF-0.028810745165840333
aF-0.031192865318631437
aF-0.08317743602738047
aF0.11185534637922313
aF-0.11787626103939193
aF-0.024610560106026705
aF0.05644185888753258
aF-0.022927174725072875
aF0.09428611441907646
aF-0.37122125318790206
aF-0.031004212046226644
aF-0.11069489368464482
aF-0.01940205266734639
aF0.285014272953731
aF0.08056297996034535
aF0.18807694624197022
aF0.18889971770059832
aF0.052961818945347044
aF0.10303565071742543
aF-0.22376489155302365
aF0.03599151788711294
aF0.0016688975752488702
aF-0.086416563046492
aF-0.11107983122288417
aF0.21031573958687555
aF0.14207114007612073
aF-0.024112554517951558
aF0.19543438003048472
aF0.036807284554496826
aF-0.06304184654692224
aF-0.27085969934704807
aF0.2059120107547479
aF-0.09531207995452845
aF-0.19266044735193857
aF-0.15317702566324207
aF-0.054775853185915276
aF-0.1029724394211416
aF0.1725093831488405
aF0.052467375589632895
aF0.15264835448728162
aF-0.09418254068068237
aF0.2573543675243375
aF-0.02592144094351427
aF-0.16613531656455305
aF-0.1056508044288422
aF-0.08849171207713616
aF-0.014335995965332941
aF0.046990776858705834
aF-0.0891598594192139
aF0.14948160067944283
aF-0.3480736785671534
aF0.03301061825114879
aF-0.195406477289736
aF-0.010964171545580492
aF0.22162581539915954
aF0.21804658721511344
aF0.08679387783102642
aF0.09975624486140872
aF0.07457805150833147
aF-0.10733293318868271
aF-0.10423618929626158
aF0.01806529837229441
aF-0.08096909688015641
aF0.17791644926599393
aF-0.37366810980985204
aF-0.3573051640713956
aF0.002670322279858998
aF-0.1371735068501257
aF-0.3254424146831227
aF-0.24888412109712904
aF0.0962634121522367
aF0.06986112691613669
aF-0.14521787093222313
aF-0.02710530515552173
aF-0.0030659741673276907
aF-0.2208088082260568
aF-0.25135337411541897
aF0.14269567642910916
aF-0.2126995020774098
aF0.12387852008027987
aF-0.11787758747455727
aF0.27142230906209885
aF0.3080978109551996
aF-0.23818114558778408
aF-0.16392183405346564
aF-0.04485990659596808
aF-0.23444896989225722
aF-0.23214076642306078
aF0.24216777247957882
aF0.012262749687729882
aF-0.20576041639258047
aF0.3116373741749366
aa(lp236
F-0.19275671351123083
aF0.13127763679344603
aF-0.1348802460663586
aF0.07398233319212551
aF-0.07188319479541375
aF-0.09306290077635168
aF-0.02647467194178353
aF-0.17183698244388274
aF0.10376362485659246
aF0.06471000339409157
aF0.16485536204690573
aF-0.13255793162807344
aF0.0468635821881944
aF-0.07462009401368076
aF0.1574186195367751
aF0.22485846758532915
aF-0.15751854550562938
aF-0.08788755383126058
aF-0.20690781830578026
aF0.036618707495122776
aF-0.1126182865422151
aF-0.0463467464055134
aF0.04392170456813552
aF-0.02944775555178403
aF-0.15804405710279218
aF-0.01878531816274373
aF0.2206178592113421
aF0.13488391921209858
aF0.17881572227693807
aF0.06175632344144198
aF-0.07700934040019877
aF-0.11130856047542088
aF-0.04578595180208276
aF0.11084874189675392
aF-0.20665757174075675
aF0.17979375628965513
aF0.017139141334576818
aF-0.1310915836354338
aF-0.17840505246712432
aF-0.0037424565983310582
aF0.16657792847312516
aF0.1714411059529882
aF-0.04436440663431368
aF-0.03835160513714888
aF0.1280612041709244
aF0.19495656674664147
aF0.0659285313205176
aF0.140875306700166
aF0.10676643293225496
aF-0.08508652677812864
aF-0.15899944001123184
aF0.026781464289514136
aF0.19413565378729544
aF-0.07954948540156219
aF-0.12127913003329234
aF0.018369786193106148
aF0.19747789746043629
aF-0.22170741142105338
aF-0.08360376009804635
aF0.005677702367946998
aF0.1215344804397481
aF0.05537653885955166
aF0.11948785241217892
aF0.1305766969393112
aF-0.03876665127515582
aF-0.17489957559955063
aF-0.1441727443486807
aF-0.09350480092793478
aF-0.10219413723512827
aF-0.17378043375213062
aF0.21343422940574175
aF-0.03500421643862468
aF0.1605005718209389
aF-0.23753466191783978
aF-0.039091126318685984
aF-0.0004588795992609703
aF-0.1921275077692176
aF0.087609009593149
aF0.10551299542230026
aF0.1663692811105038
aF-0.06592755550589346
aF0.10482300748639267
aF-0.08815771665349875
aF0.1346020217402402
aF-0.09222026313710824
aF-0.25024107370764764
aF-0.07481250855459312
aF0.07570497806013934
aF0.017489731452936256
aF-0.13018580663813295
aF0.07339559869785887
aF0.04276169229088606
aF-0.02560697575275021
aF-0.12423018026996098
aF-0.05281809960842601
aF0.06492681788050218
aF-0.17221075785832585
aF-0.14396433936115607
aF0.11254195131860571
aF0.2553085126548829
aa(lp237
F-0.16163011705890318
aF-0.060218952718683695
aF0.04430355871982777
aF-0.09567143783887025
aF-0.17618170318328524
aF0.039376830504897126
aF0.001839726348394215
aF0.11630847429237753
aF0.02375590119697977
aF-0.09755052061384219
aF0.12268600214474813
aF-0.10517239498972034
aF-0.11466339846340692
aF0.17065967544139735
aF0.053695703000059665
aF0.0961415206303201
aF-0.05912526559850253
aF0.10969272522666272
aF0.18054327798488456
aF-0.17104837858830094
aF0.03338499113794002
aF0.15137068949814955
aF0.07967902868776341
aF-0.059216986493708615
aF-0.1814868392586437
aF0.0033541959350688972
aF0.0589311841575029
aF-0.02395766543978802
aF0.0787179730963399
aF-0.04217851765845498
aF0.12543391625927158
aF0.1491880333461205
aF-0.11792571527487195
aF-0.16404331014263235
aF-0.02998277852155103
aF-0.17850312210810285
aF-0.04308743332169038
aF-0.0009690781193629803
aF0.14016931885966494
aF-0.07577097531743288
aF-0.11460442419942096
aF-0.041238921246277614
aF0.0697588625297351
aF-0.10483269261874345
aF-0.1824578052520004
aF-0.14920903522265289
aF0.08447124566910569
aF0.07676401533393945
aF0.04276408418658897
aF-0.04835859314872551
aF0.08462537642397669
aF-0.10837391143540699
aF0.12923219436380545
aF0.04347781922755875
aF-0.18765461748962256
aF-0.1962912055031996
aF0.18275103033919746
aF-0.14067593094677935
aF-0.16380193950284158
aF-0.1354859692741367
aF0.09909131691704741
aF-0.1062546325364947
aF-0.013833638806762862
aF0.0010910132559379566
aF0.11232052795143706
aF0.10126451725322226
aF-0.01756535927647367
aF0.1174022501396477
aF-0.08385832962421313
aF-0.1029743849884596
aF0.12130222828943647
aF0.024635914891523964
aF-0.028892673597318647
aF0.03985044327452065
aF-0.03677861778824366
aF-0.07414713331215564
aF0.10148115053492315
aF4.216718321095204e-06
aF-0.054595968486217894
aF-0.10608432357889898
aF-0.1198446333523348
aF-0.07426883536935808
aF0.07495043427907092
aF0.18999352898114508
aF-0.04352158751297752
aF-0.1992144555977155
aF0.19050898848922873
aF0.03768902067703414
aF-0.1364930602897496
aF0.007429768802021277
aF-0.0735009222699002
aF0.0888690437343259
aF0.15527059201282717
aF0.1857219349274456
aF0.012286396048771943
aF-0.15905683545641458
aF0.028349912474953783
aF-0.04636864007584629
aF0.043707529883309296
aF0.0058868913805082785
aa(lp238
F0.18538623042369845
aF0.17997297155331912
aF0.16569524098917862
aF0.16016104698319744
aF0.22757596140550848
aF-0.13376971032933327
aF-0.1652580663236157
aF-0.022102613956505122
aF0.20568796094247377
aF-0.16086637447208327
aF0.045765444517682614
aF-0.033117698374689086
aF-0.2683575656438046
aF-0.10760600505721984
aF-0.1539096615526893
aF-0.03814999522107909
aF-0.20138072544945979
aF-0.1804909762204466
aF0.09197965687403627
aF-0.006827774701696323
aF0.05244053714067338
aF-0.051012343806723204
aF-0.010098023041238786
aF-0.13883075769248826
aF0.0431566736509872
aF0.05685773421664193
aF-0.1725690948196055
aF0.29790648451413027
aF0.1094606337073023
aF-0.091935559511593
aF-0.10663080297534969
aF0.10043555500678879
aF-0.21884669241652702
aF-0.029465197585465654
aF-0.09720440851906852
aF-0.09015836383954912
aF0.02867545040168146
aF0.0964325369636989
aF-0.018909959362114176
aF-0.1540094737740636
aF-0.16920346574980144
aF0.016673765217427115
aF-0.18196920084233226
aF-0.18528805637644535
aF-0.27429588953183814
aF-0.1682385175101875
aF0.011711094464196095
aF0.15342174443659978
aF-0.37217977882375797
aF-0.10095337546349444
aF-0.08046973394071855
aF0.12543983454135105
aF-0.11526620665721522
aF0.14297051329243476
aF-0.07513008501745538
aF0.0550115483240518
aF0.15626447423353734
aF-0.037698419427564016
aF-0.2282461765033839
aF0.011455392583391115
aF-0.06589956797933222
aF-0.10203356278659909
aF-0.10902073126778436
aF0.04213317589586035
aF0.19755924727747357
aF-0.015078987912758603
aF0.2401676205390754
aF-0.14028665609100818
aF-0.12230669371934519
aF-0.15165359689957533
aF-0.21905213011323565
aF-0.3894526091519412
aF-0.1982103014960919
aF0.12531321762923814
aF-0.025974355215274036
aF0.11600842725204738
aF0.06991525006484396
aF0.031190176640922124
aF0.08733756059638721
aF-0.016341516481239347
aF-0.09516954152992946
aF0.14803952667182518
aF-0.09872740349001657
aF0.16359605980574976
aF0.22967001303183746
aF0.18990740012550372
aF-0.18228191539430919
aF-0.1004033382328684
aF0.16476554073062213
aF-0.11528509124545215
aF-0.019321931589104953
aF-0.09680711429309262
aF0.07592154948292144
aF-0.007816072640129866
aF0.1487003398320216
aF-0.11600906477552318
aF0.290721080915404
aF0.11049488802754626
aF-0.0341207689077412
aF0.041325099109525816
aa(lp239
F0.10844764144809914
aF0.17317525741646517
aF0.3018167701834994
aF0.2217599390283713
aF0.10236517571048158
aF0.10309209734564848
aF-0.2696260379927305
aF0.14745917722368024
aF-0.13314726292026788
aF-0.11681730000569203
aF-0.04692515814768124
aF-0.540226557798548
aF-0.31316489223923266
aF0.5039023442612419
aF-0.4664363891929518
aF-0.011861410086975197
aF-0.012461448141532116
aF-0.01316671597064147
aF-0.16558560157431884
aF-0.29352717012513624
aF-0.3066713359453597
aF-0.43684696635133324
aF-0.2763012346600568
aF-0.4240108604409287
aF-0.17536879302640365
aF-0.5126509711800369
aF0.031638360302349754
aF0.613279512523428
aF-0.11768313486332953
aF0.1617214680198507
aF0.36722283848880766
aF0.36295415542261705
aF-0.24640457470033397
aF0.14203068561932722
aF-0.37844167834049464
aF-0.004327745712268241
aF0.19625565321593919
aF0.12147289315426064
aF0.3419831470097493
aF-0.5913727263883276
aF0.11304910374314843
aF-0.18624237798080825
aF0.057361243193117695
aF-0.12820475606135254
aF-0.41706358882279626
aF-0.034001324522150884
aF0.10501134920559899
aF0.02814320708617322
aF-0.08235895832742228
aF-0.18554961796387248
aF0.07358188754552385
aF0.5180434596959127
aF0.01032089664932215
aF0.3988793347471654
aF0.008962680606579097
aF0.03452289676210159
aF0.026564965343825693
aF-0.4157685901870932
aF0.11874399998100028
aF0.2931866547808217
aF-0.08071378869039646
aF0.01871252378536595
aF-0.300258396382247
aF-0.29768765585168633
aF-0.01550334448491981
aF0.12919530860007092
aF-0.10352962595971457
aF-0.34303811366211234
aF-0.6768089201398522
aF-0.3539494859787149
aF-0.33021661797063506
aF-0.2694931384565379
aF-0.252933424992826
aF0.3744929558798234
aF-0.5110213313937501
aF0.3885111365718463
aF0.2303973330366041
aF0.5025913942859822
aF0.13303697778543067
aF-0.2659711422092209
aF0.1759750364435329
aF-0.2246038517402954
aF-0.4009689000937413
aF0.11238563507186893
aF-0.24371639384529575
aF0.41032329678580326
aF-0.04158439135104979
aF0.12639270251847645
aF0.1196121278874384
aF-0.02799394064516037
aF0.23634848751736698
aF-0.1968470396441744
aF0.16612237944916625
aF-0.0963431878644804
aF0.030456369947761984
aF-0.015724098993103723
aF0.3406390566177703
aF0.36801262209180924
aF0.699575663577537
aF-0.2707129853235156
aa(lp240
F-0.14843967498880964
aF0.24644526503889047
aF-0.11931510398310079
aF0.19597019407373403
aF-0.16120776095706416
aF-0.46381811893614416
aF0.10684009037165898
aF-0.1384887964558466
aF-0.26129250964854517
aF0.019512980123020784
aF-0.17496229061444446
aF-0.3850857005504004
aF0.313109051130234
aF0.05978559475050855
aF-0.09589706558868485
aF0.37558852171344187
aF-0.4790381193924277
aF0.4537235128476288
aF0.15589469768434808
aF0.05824732672756399
aF-0.38092328780303125
aF-0.38960792808535316
aF-0.35238245509778837
aF-0.02607463011492984
aF-0.6063655444675633
aF0.017575138565870695
aF-0.13663884138244048
aF0.04404440529542447
aF-0.030516155816266998
aF0.38698727272507477
aF-0.25445763118770104
aF0.3117606582902612
aF-0.03773398158370221
aF0.09256258839284712
aF-0.1795504575691202
aF0.06981003762666463
aF0.09375902351505604
aF0.2731723222535673
aF0.21190171824102744
aF-0.21206495590365748
aF-0.2685175019478342
aF0.46046701335913814
aF-0.039166892955226275
aF-0.2643249747064991
aF0.0843707308812568
aF0.23161933261125572
aF-0.38147034307591426
aF-0.3794676696929647
aF0.04437456839476453
aF-0.24992415908161186
aF-0.04392195839968357
aF-0.2970978826458674
aF-0.007189186116429441
aF-0.05780793578958093
aF-0.08005478868217142
aF0.0035132775251864043
aF0.15173056057787926
aF0.051118643944545517
aF0.7035331963956692
aF-0.14137956227239165
aF-0.1872898099298095
aF0.20391912459841505
aF-0.0408124385410265
aF0.16296123276811852
aF0.08897335797563895
aF0.053286546418738805
aF-0.6133989342448133
aF-0.4234299632814292
aF-0.1012268504944351
aF-0.26219207811875334
aF-0.0218890587862605
aF0.24801832529724022
aF0.35925735187976604
aF0.35020870047468416
aF-0.05660837888243498
aF0.2610989530991959
aF0.32215806443346273
aF0.14510364555301816
aF0.14662923447484855
aF-0.09701820936094921
aF0.07567832930810182
aF0.03008343344811591
aF-0.32765998738342667
aF0.07190947642691306
aF0.19290061242100767
aF0.36388017077298546
aF-0.3001764585776224
aF0.15975864648947338
aF0.03654767521370383
aF-0.1256834455003056
aF-0.07285530797095999
aF0.044205826127417594
aF0.17733519953853136
aF0.011302019781616483
aF0.2637423011513124
aF-0.17141285990635186
aF-0.19889615268851185
aF0.011874555353437738
aF0.6181026268662944
aF-0.6512183797719006
aa(lp241
F-0.23713029247050696
aF-0.08867175721362484
aF-0.4543053782842124
aF-0.39756393762980613
aF-0.09557954500474504
aF-0.15874070019172173
aF-0.10322192055879043
aF-0.10179361691068727
aF-0.00749048098541631
aF0.01884733604339093
aF-0.39298860967809357
aF0.43333306555837314
aF0.5173519704328107
aF-0.3464132717475664
aF0.09004325451031572
aF0.3228623135584619
aF0.14908271057345013
aF-0.24623975558677297
aF-0.09940943462404572
aF0.5068951300684186
aF-0.23133830044419357
aF0.13133981261112226
aF0.26615784920291985
aF0.6889738728450101
aF-0.23216090260921793
aF0.4173737266077041
aF0.02251630745836282
aF-0.6819995834759565
aF0.010939558233461379
aF-0.05947213544876926
aF-0.5748546880666413
aF0.24450888070417304
aF0.6007592357384611
aF0.10789476755573559
aF0.4378542358224743
aF0.09358227890394202
aF-0.050183474380647436
aF-0.2283171994392139
aF0.0799354870119818
aF0.14632104512804323
aF-0.19822590345790475
aF0.3422384231220535
aF-0.002004870170967254
aF-0.07428606667577678
aF0.494809908156248
aF-0.07210863487517877
aF0.14935597873030115
aF0.06119403878741242
aF-0.3458978895850228
aF-0.0539142781636726
aF-0.22758127211952908
aF-0.6145279288827612
aF-0.058758807790876506
aF-0.10341378213129306
aF-0.3595609637955412
aF0.11837309691005668
aF0.1648810605747074
aF0.24429232254454714
aF0.07262806921223532
aF-0.5498063770740664
aF-0.39704540388970033
aF-0.4112623976398862
aF0.44553725847096565
aF0.2908969349705994
aF-0.01009513365518898
aF-0.06857952145449413
aF-0.3178488433169778
aF-0.050881404703197075
aF0.49622271993166306
aF-0.11899959578103063
aF0.2992320730671143
aF0.06701711518299432
aF0.40881734065586056
aF-0.2407747781198889
aF0.2451488600836216
aF-0.020053089190317397
aF0.32488372805636917
aF-0.31472918198837735
aF-0.2883888116491787
aF0.16244099571797732
aF-0.4785298974720099
aF0.06725591479225386
aF0.026016776899191883
aF-0.0025456459132905214
aF0.28737282878687653
aF-0.21054932346676067
aF-0.21787283118671197
aF0.0020711482594581426
aF-0.29398331059020055
aF-0.08489590977445391
aF0.034312448062801364
aF-0.01054641464272393
aF0.4776039413879498
aF0.1491769669465143
aF-0.11971630207481898
aF-0.020339159436893618
aF-0.31133168188694915
aF-0.1523399758856602
aF-0.05277512862823077
aF-0.385429852678682
aa(lp242
F0.18439963800047485
aF0.09149400072471213
aF0.07273673333273106
aF-0.7465497830401772
aF0.07684197019515539
aF0.03463099575658568
aF0.07929688284610216
aF0.024528314623482764
aF-0.08932034819336902
aF-0.14984787227977342
aF-0.794872752920462
aF-0.11359496052096595
aF0.19302677144489375
aF0.5681015973813385
aF-0.2068888030903347
aF-0.1043070704531212
aF0.49329461943016856
aF-0.65654961859624
aF-0.26546122434833064
aF0.44708700144840124
aF-0.02798757932207099
aF-0.07759339899294085
aF-0.07498611801712211
aF0.4723684917408724
aF0.935762266987814
aF0.10022221307560618
aF0.464127631413785
aF0.0284049959700334
aF0.15415220138051042
aF-0.21157076680344597
aF0.021400729847553087
aF0.45675022781545355
aF0.18095809953225842
aF0.5673813627428426
aF0.1824098515120265
aF-0.25850022739549433
aF0.1660622887675168
aF-0.729955805558384
aF-0.47038680447320247
aF-0.19725605339397148
aF0.07070059385700589
aF-0.14747789096550326
aF-0.2588211546213924
aF-0.03400617088321731
aF-0.018689908657324065
aF-0.7100569369998316
aF0.359066090619265
aF-0.1893231402865239
aF-0.3537911492173494
aF-0.4785320256456334
aF0.05366065350455619
aF0.44538891152084087
aF0.34459479468712867
aF-0.10064298503304223
aF-0.3663222278478522
aF-0.3789612849853699
aF0.22966297056252757
aF0.26926415784972896
aF0.017052196723975774
aF-0.9076753230785412
aF-0.65600114808439
aF-0.2964683447433772
aF-0.031298228077109885
aF0.345339505025364
aF-0.24424841669499162
aF-0.6887913358592275
aF0.21477915557456045
aF-0.5397680191372027
aF-0.01167666453062743
aF0.013272492841543797
aF-0.10475926494781096
aF-0.48035448941012615
aF0.08673016512613695
aF-0.2483371739057595
aF0.4235862162473438
aF0.5986037209722767
aF-0.686918448735976
aF0.0038499134812056755
aF0.23133478899789806
aF-0.31005218152321107
aF-0.15336176566254808
aF0.5321611620166781
aF-0.3563034622024853
aF0.2669327347506726
aF-0.7858995237825551
aF0.0483985971886156
aF-0.060844589965994476
aF0.13192918660127445
aF0.04696220762301783
aF0.34855758238645207
aF0.42739375864008466
aF0.11996428141316562
aF0.33032971561244284
aF0.27898597717496854
aF0.5615226791642265
aF-0.4501346130707815
aF0.1600883617382942
aF0.3633857057344409
aF0.16558920083403827
aF0.0022627519231325955
aa(lp243
F0.011245263204720154
aF0.01734122310777601
aF-0.051301944222354644
aF-0.37525282409604366
aF0.04018664603135446
aF0.06217222578995586
aF-0.07817682429297981
aF0.023153084804451822
aF-0.11991408526677834
aF-0.0313899625542548
aF-0.1393872354731387
aF-0.020075502229237638
aF-0.15421530537736525
aF0.34095030065115517
aF-0.01967061411095257
aF0.06472468892033152
aF-0.007226763764838132
aF-0.1890351696554879
aF-0.2138409605622997
aF-0.09792363018548883
aF0.005666023825868067
aF0.14772701176550165
aF-0.09954547367803801
aF0.04961166758575388
aF0.229036846886641
aF0.044288676540951366
aF0.1822274711428438
aF0.14513951595021146
aF-0.062367576073553664
aF-0.08682721814826447
aF-0.12036523798838972
aF0.09436952245906
aF-0.05351833971122305
aF0.3161184749629741
aF0.1545164013845559
aF-0.06198633783008822
aF-0.13958793760245886
aF-0.02023409863836293
aF0.011129187381713692
aF-0.14555960047169864
aF0.14878461922596087
aF-0.14178333813094066
aF-0.24121371402319652
aF-0.06223474376424554
aF0.13869053054450645
aF-0.37919236666580114
aF0.0453091881776552
aF-0.1488706222729216
aF0.20211524882207543
aF-0.21755593345563454
aF0.0976005271725382
aF0.26822492992780617
aF0.16520465136077692
aF0.03619967551250113
aF-0.1181797912590642
aF-0.04898658220216281
aF-0.040783349746066934
aF0.23160293910177476
aF-0.2174732107274566
aF-0.4283926892015019
aF-0.07343163598774512
aF0.014794263105600638
aF-0.08940781201419538
aF0.1310507432368081
aF-0.2252093378145271
aF-0.0919165373083873
aF0.06211511377798706
aF0.12677744195235816
aF0.130036461772879
aF0.13962486119206155
aF-0.08993464924787516
aF0.11745953315692331
aF0.2368971571642231
aF-0.24506288482979646
aF0.054013796774384816
aF0.24987081568788289
aF-0.26435438531785516
aF-0.15963772685841288
aF0.048706469239338426
aF-0.21692292619618514
aF-0.19402324045386593
aF0.011350873167806176
aF-0.002461716733785759
aF-0.045680726119559215
aF-0.3656577661799501
aF-0.12920511191515152
aF0.2370418526714023
aF-0.2571060353000819
aF0.23632596174670475
aF0.12258722494981594
aF-0.03576735923217302
aF0.18477409106530893
aF0.2689124318196949
aF0.27995868686339476
aF0.2582907622209722
aF-0.19734817497928037
aF-0.04615478934555742
aF0.14571502241703457
aF0.015079483768760496
aF-0.104730851328842
aa(lp244
F0.06892607364730069
aF-0.19716461856110426
aF0.0733939273722042
aF0.03926377162078719
aF0.01730657932034259
aF-0.009772677838609967
aF-0.016866836328422383
aF-0.10586802521168806
aF-0.16717208190597968
aF0.10414579689999881
aF0.1251357660027374
aF0.152829320230032
aF-0.17912070693191018
aF-0.000163751604057738
aF-0.056019048331411435
aF0.11064825103512788
aF-0.17239539725584765
aF0.015726673734363834
aF0.14463554663808215
aF0.08004321349879509
aF0.04115714086568749
aF0.08300387999683906
aF-0.17585705604445787
aF-0.11149677529125368
aF0.1211852758610198
aF-0.06457187258784258
aF-0.05816830261315551
aF-0.0072045492785115595
aF0.04395088991616621
aF-0.13738718042595616
aF0.1735694630718659
aF-0.09317684269464489
aF1.094019077879913e-05
aF-0.1830280195010246
aF0.037727749262725305
aF0.050154989963560485
aF0.033076805630845654
aF0.1632101883980533
aF-0.19729469170466302
aF0.1566293673308157
aF-0.13250206790669372
aF0.17653249304624552
aF0.03225842233427082
aF-0.10708278034947266
aF0.1353436937896001
aF-0.17803317950198214
aF0.041254923795355045
aF-0.1555865606403172
aF-0.02855236812589362
aF0.15992545578750625
aF0.10227531111379433
aF0.02756771250337401
aF0.15518873948094022
aF-0.15323030338660107
aF-0.18012499548005265
aF-0.13341700252788177
aF0.08375454830275963
aF-0.0034756000590193663
aF0.17174357854207037
aF-0.05857807462108444
aF0.014384693189546275
aF-0.028036873844856813
aF0.12961285418280227
aF-0.19916551090066728
aF0.013541218925013504
aF0.16353353081819297
aF0.11183691388895321
aF-0.17280496184336533
aF-0.19689930814551446
aF0.031595890043848156
aF0.13976683931302258
aF-0.054437687062111044
aF0.12267489450079914
aF-0.153624785395689
aF0.02658619721997056
aF-0.19171010347594647
aF-0.08231933552254596
aF0.019751641754680097
aF0.19642999851132079
aF0.1341380972070753
aF0.07354403897781202
aF0.12825336653941485
aF0.05904734756085419
aF-0.142443047203973
aF-0.0031968571103968444
aF0.011025803022063914
aF0.014629154269252018
aF-0.06112584506369672
aF-0.04804839481370672
aF-0.031034136001817945
aF-0.03220860870750309
aF-0.11530100606603674
aF-0.16708058444318674
aF0.08252322071809216
aF-0.10909925673725981
aF0.14160025293206208
aF-0.20216531344984895
aF-0.1856089226215779
aF0.09803218410603293
aF-0.11332305386728787
aa(lp245
F-0.02213720282688078
aF-0.11167768986498948
aF0.1430723605063856
aF-0.11713999651516654
aF-0.18821593551877452
aF-0.10971596381118741
aF0.005889811549206675
aF-0.13896572442086697
aF-0.16972898576857298
aF-0.19261299808208593
aF0.09635682916583466
aF-0.10635261062993635
aF-0.1367245975867215
aF-0.001434877410804225
aF-0.07100178958476766
aF-0.12299693286876995
aF-0.13174799146309074
aF-0.018418656424475544
aF0.014240524408542704
aF0.18872805460832226
aF0.0950870397215326
aF-0.15681737126360407
aF0.0765974340958896
aF0.16868988389742767
aF0.09629977491821923
aF0.10269524362946136
aF0.039597623610202415
aF0.034733953797879774
aF0.09602414452058505
aF0.043233316285424095
aF-0.0028657700349852266
aF0.010634378491956531
aF-0.09326683733917385
aF0.01308351833665311
aF0.14925258728072577
aF0.033753203134432225
aF-0.11663218752041492
aF-0.15532072996609633
aF-0.08546296211634014
aF0.09344818557583723
aF-0.011168889009427113
aF0.1476150615723852
aF-0.16841640282300663
aF-0.12664050237962737
aF0.15536255366249396
aF-0.08332704389368142
aF0.18918196366059775
aF-0.007926567705808102
aF0.11081890307399267
aF0.06361756641276772
aF-0.14727884357503368
aF0.18685548003867036
aF-0.10014061402723842
aF0.09494492664858867
aF-0.09731189777462822
aF-0.050610472312644816
aF-0.180685324599366
aF-0.17758782292748387
aF-0.16763265815411266
aF-0.1890170619778415
aF-0.09433016535844843
aF-0.13156887255951372
aF0.0985683690098581
aF-0.1691243893574321
aF0.1871277606206907
aF0.16913857035608543
aF-0.11394938664757577
aF-0.15014973970921455
aF0.07143442978054593
aF0.005944398335952228
aF-0.15479414964775376
aF-0.19242360965656033
aF-0.19199680780146716
aF-0.15456900549106192
aF-0.14814855974496888
aF-0.13101012420185137
aF-0.09289544480835375
aF-0.19886434529389319
aF-0.007060945647826916
aF0.05933006086474257
aF0.13821223930354243
aF-0.013714038008761198
aF-0.14375302976125806
aF-0.07710448717354082
aF-0.11374263881517713
aF0.13878405194206506
aF-0.15602194580134643
aF0.19650127187846728
aF-0.03491296342080244
aF-0.1324665916971599
aF0.1148633027862131
aF-0.045051502334866544
aF0.04320051605435796
aF0.10029481918634986
aF-0.1613501104974612
aF-0.13574731352999592
aF0.04683617572567411
aF-0.006300223443684055
aF-0.029037207367268836
aF0.08649478741924682
aa(lp246
F0.026335146294907328
aF0.2672238496610901
aF-0.14872710989540905
aF0.029827380796515816
aF0.23376942535268663
aF-0.20486228770028253
aF-0.03464248223428036
aF0.08635983907963499
aF0.1708306359763794
aF0.14290311943055461
aF0.2944240714067101
aF-0.24753099481902346
aF-0.04241284540208764
aF-0.011156068764010622
aF0.12181932616770019
aF0.19282650178416452
aF-0.24392087795091613
aF0.2987136218219224
aF-0.0033635455346455604
aF-0.34411760751776155
aF-0.05564615768086416
aF-0.29668034269160803
aF0.0430960640324276
aF-0.008602107354405404
aF-0.29833832355661244
aF-0.3166715157699077
aF0.0786214736725592
aF0.28482949333295
aF-0.18047360435559665
aF0.02943297106833422
aF-0.009572071545366986
aF-0.09840975425515619
aF0.027092712884796352
aF-0.11256326265830169
aF-0.2486526290977599
aF0.09981575733447341
aF0.12866853308156093
aF0.1271255586298613
aF0.18662823536431652
aF-0.388530734214543
aF0.21237725146834602
aF0.2751826967231877
aF-0.14558004454516985
aF0.2033048062164681
aF-0.059692248474514056
aF0.12056210422654717
aF0.022269602949920555
aF-0.022925085572943732
aF0.17230363990997064
aF-0.06322890991537614
aF-0.0942561182085184
aF0.041422040150037726
aF0.060169356845386886
aF-0.04575720709755548
aF0.12913851957197356
aF-0.0038534080050421507
aF-0.05715977468794316
aF-0.05353866593795069
aF0.0788668359052095
aF0.23402775662316988
aF0.04533357667878473
aF0.4526356953708142
aF-0.23335321128906997
aF-0.29752306404285395
aF-0.1426419861498562
aF0.27137960819542845
aF-0.17740886544873039
aF-0.0704797965963446
aF-0.4210288215287759
aF0.24281236389940963
aF-0.05120668432839507
aF-0.11505216629764708
aF0.02089323007706004
aF0.5138804773233931
aF0.11680910318044803
aF-0.112678200847158
aF0.13213743026607822
aF0.0955455642214291
aF-0.07792275558633541
aF0.006317789942991763
aF-0.017378311796776635
aF-0.07143564564180577
aF0.06483871516188403
aF0.04283679258290209
aF0.16845525418191673
aF0.08731484699189512
aF0.07985440109782309
aF0.02985303013342129
aF0.14604051837072743
aF-0.03997376821853562
aF-0.1904166148593378
aF-0.049370965972525056
aF-0.060626251274210556
aF0.01726085828291084
aF0.10789225411422754
aF0.14083952330486624
aF0.040440148351409855
aF0.20876041474881588
aF0.41968370160612145
aF-0.20530240919426873
aa(lp247
F0.005230778600228065
aF0.4281515165411204
aF-0.10720396537968306
aF0.46550520050452376
aF0.12824155281879712
aF-0.324179316839956
aF0.006302716740906686
aF0.12836815181949168
aF-0.49995482924807605
aF-0.07655075930554726
aF0.3212655919351567
aF-0.6764709317185591
aF-0.25706880719433334
aF0.15619941838514967
aF-0.5662912284065797
aF0.4544876483980788
aF-0.3356823402236936
aF0.3235490621937084
aF-0.04195228399427987
aF-0.23182368577547569
aF-0.4329554365460316
aF-0.1201243556809869
aF-0.09561134665492406
aF-0.029795035688604816
aF-0.41113216604704045
aF-0.46999488576503307
aF0.31629225952367696
aF0.41359326238484934
aF0.0654708264089167
aF0.3584897018973597
aF0.47053965900432804
aF0.2701061578560635
aF-0.33695478862928013
aF0.19485445281699842
aF-0.5000957958471333
aF-0.3825999271837051
aF0.03576081743346366
aF0.5241427348962366
aF0.5717457087679618
aF-0.6128414305934019
aF0.27813583024476174
aF0.07356648418369018
aF0.11988881969644968
aF-0.037545160513366656
aF0.13462823549546618
aF0.08185397217312926
aF-0.26707155170191516
aF0.008628149350365289
aF-0.02556831077101042
aF-0.218609154005989
aF-0.15437001639509518
aF0.2047271866271322
aF0.3038254385126826
aF0.2668410222904133
aF-0.3226754231091508
aF-0.22238392616716615
aF0.1587881431122808
aF-0.3807661557713274
aF0.6579918655374147
aF0.3789359143241233
aF0.11991453839156577
aF0.4612596886967896
aF-0.4138843793151319
aF0.24572634916418495
aF0.009075243797623011
aF0.1893732785575678
aF-0.32292517136857873
aF-0.08901049395647713
aF-0.8768695712499026
aF-0.2657601631813813
aF-0.47934073985889203
aF-0.028931840226604208
aF0.017171105286586334
aF0.7106470054881017
aF-0.21438433880757526
aF0.3786342296668766
aF-0.006606953319207673
aF0.07126899389445852
aF-0.039093022816631906
aF-0.08427300672000843
aF0.06503270763231397
aF0.06145803777921971
aF-0.42428323715063154
aF0.291615364224352
aF0.20870832690218552
aF0.5147015061346922
aF-0.2816467566804322
aF0.3335578520620143
aF0.3010502607170311
aF-0.3721437473363294
aF-0.28399827589022436
aF0.010854389515262852
aF-0.006765782013727812
aF-0.03786731845668511
aF0.0429302678967574
aF-0.2549017672552415
aF0.2750457225862964
aF0.48248414517998783
aF0.8424951490113104
aF-0.4531336950962091
aa(lp248
F0.25486077215157554
aF0.06765120576251141
aF-0.12598561068697345
aF0.4240444163859089
aF-0.24514773543756851
aF-0.6199591878543295
aF0.09238035359811034
aF0.3462706297652714
aF-0.8443806592150729
aF-0.04108616120245728
aF-0.08313403836646985
aF-0.2269078396377704
aF-0.16378049428922864
aF-0.16979680570131778
aF-0.21786590383389776
aF0.3241287475494365
aF0.012482392850034262
aF0.0708732590998425
aF-0.07089231668092011
aF0.18599084719576733
aF-0.6387846846924721
aF-0.16914757257855978
aF0.05106642569693765
aF-0.07200592176244339
aF-0.18673136476798813
aF-0.2109479260542265
aF-0.025461506373545866
aF-0.1763188660398084
aF-0.5736922310977968
aF0.030930164320755283
aF0.3939876340558007
aF0.41236487233297764
aF0.12535546662135413
aF0.1504492755154723
aF-0.00868613382558204
aF0.19961465144467488
aF-0.008941903143164748
aF0.030432632882756435
aF0.512649781929015
aF0.10891897390343036
aF0.05752099096129935
aF0.16852191676390216
aF0.13570063076972938
aF-0.12909934326766834
aF0.1660650634615426
aF0.16047748235793122
aF-0.32161607868759584
aF-0.11569875660658592
aF-0.6396937390159559
aF0.05678324401817565
aF-0.5160070223304218
aF0.044894305385796744
aF0.3135838010467294
aF0.22300525317146272
aF-0.06769730415956997
aF-0.3400803014632904
aF-0.13794695540191887
aF0.17835667026445712
aF0.18570683519052458
aF0.30695973003210225
aF-0.42151444383715225
aF-0.14248345951023358
aF0.051896900593603745
aF0.6672039904366509
aF-0.25243590118950476
aF-0.11705199035825804
aF-0.07871019289101996
aF-0.5554236597280474
aF-0.06785628696285882
aF-0.4073809573889965
aF-0.0708341283285635
aF0.4694582268820071
aF-0.4587691243126448
aF0.25688440705771065
aF0.146154697440583
aF0.4996068637766116
aF0.17481859528610508
aF0.21377744461280715
aF0.10808251508987514
aF-0.05061765747960701
aF-0.3593518021117617
aF0.12246669426291208
aF0.04129924010255628
aF-0.4507970535934384
aF0.13148345160078956
aF0.721145530276174
aF-0.6823372187246267
aF0.34531092879737396
aF-0.12644051745643045
aF0.14529832103744536
aF-0.010801238600862757
aF-0.06784454657457334
aF0.4050820508319303
aF-0.22024782137695806
aF-0.3956791446415455
aF-0.12883467546810412
aF0.5159161603759627
aF0.14529479199469592
aF0.4235218890326378
aF0.1977486280146768
aa(lp249
F-0.14639752439535123
aF-0.014432830300511757
aF-0.38839109860524834
aF0.10511086548662041
aF-0.1525690222023586
aF-0.47699646891255537
aF-0.3613092902039983
aF0.5007888866180842
aF-0.4604250575523789
aF0.14873277598887696
aF-0.06927407952881189
aF0.003697022442468185
aF0.08787778796867002
aF-0.19721027314869977
aF-0.3659123184716536
aF0.34573099625962644
aF0.22954069264737983
aF-0.26298091357082387
aF-0.1973694645575298
aF0.16071002827707884
aF-0.18439448771114825
aF0.33375698398460707
aF0.19714466519147122
aF0.08015669080273916
aF-0.11089760102143924
aF-0.0074973383161188924
aF-0.3072628813958159
aF-0.3904516720268811
aF-0.08126583758781386
aF-0.20351571730958315
aF-0.05916824036190489
aF0.1167246017919726
aF0.2942067893450841
aF0.23231380713024594
aF0.2619734704441494
aF0.28860209817188454
aF0.04669494028922238
aF0.03268487648427527
aF0.48819267221151275
aF0.30241662376566636
aF-0.13246607495835774
aF-0.15544369197923746
aF-0.07691779044294535
aF-0.396133378156253
aF-0.07774223461131241
aF-0.1806100248009685
aF-0.26468831282955013
aF-0.13467981647158117
aF-0.5779393739920041
aF0.1465479447909368
aF-0.43388326387655535
aF-0.14496051185228104
aF0.16697606558445013
aF0.2692631558805426
aF0.09680770584507309
aF-0.02872964772508974
aF0.0829161544291745
aF0.13313465613061842
aF0.21553112745463968
aF-0.006420021229216191
aF-0.39509171845928726
aF-0.2793664311935436
aF0.30012770462810606
aF0.6457094724609195
aF-0.08416543428897666
aF-0.12982128671315302
aF-0.1987504690119262
aF-0.2226382422973297
aF-0.09632321418091264
aF-0.42405113948253276
aF0.09822996986402892
aF0.4288557773367632
aF-0.35811292438066145
aF-0.0755442853671997
aF0.050135202261444904
aF0.07869892752338631
aF0.2491372898522463
aF-0.05738804039374358
aF0.042351646354059524
aF0.1810874409838435
aF-0.17342012914529015
aF-0.22055364241539283
aF0.10393706132330378
aF-0.46617572259872
aF0.09342130249977662
aF-0.0820259161290124
aF0.00932198460564682
aF0.2521810954205447
aF0.2433221870404395
aF0.3176912316920418
aF0.20870164761245766
aF0.0983004807493656
aF0.3018972130344749
aF-0.019156077470174008
aF-0.24011984142005235
aF0.014582931956543622
aF-0.003455159571837331
aF-0.26983299535135574
aF-0.09639559448430682
aF0.19933828553400135
aa(lp250
F-0.39011504354197973
aF0.24070532608398634
aF-0.21961255492268578
aF-0.4498727765300107
aF-0.08705151368638518
aF0.015300197315847464
aF0.08604662471652921
aF0.21972013517603764
aF-0.2438744592842559
aF0.16344937249688316
aF-0.3513223521079988
aF-0.21685733952797032
aF-0.14403834587676922
aF0.372379106312437
aF-0.7060203139763399
aF0.0752482124239339
aF0.308364286181916
aF-0.44544950225787305
aF-0.07453299008702316
aF-0.10905171771624955
aF-0.32854250315912936
aF0.41306508958286975
aF0.03989263751362456
aF0.4295398748075301
aF0.24374138236399875
aF0.22491432825224036
aF0.5329937194078631
aF0.18547956941505236
aF0.27445416800737465
aF-0.24792396614071566
aF0.03280543442462734
aF0.2700907683978977
aF0.2812200382728252
aF0.5396323343756889
aF-0.2626463615152147
aF-0.4505233928396543
aF-0.1982139864695764
aF0.2659151201755902
aF0.09524814868022126
aF0.06317563402954646
aF0.05349155639977051
aF-0.2676747487078684
aF-0.3143891902767094
aF-0.3923677273013905
aF0.020850156060729094
aF0.0580886739508123
aF-0.27420915871501145
aF-0.20732307111991552
aF0.2090342866861847
aF-0.11354607551959557
aF-0.053778842953624124
aF0.37255342445495404
aF0.08773984799225815
aF0.16483272706338548
aF-0.5088078720435304
aF-0.14863549872602166
aF0.15466825593624672
aF-0.034629788549856474
aF0.27794609899062556
aF-0.2693540460248346
aF-0.4477037358990169
aF-0.21954441701599323
aF-0.04161204856148013
aF0.3351528643772341
aF0.1753898456714356
aF0.06839983895201325
aF-0.3554879313679341
aF-0.30254931080999764
aF-0.4730112794784467
aF-0.4482815294102148
aF-0.05144750940374645
aF-0.04344079456779455
aF0.18187741778532848
aF-0.13482637632075029
aF0.30653206577060016
aF0.049260165326079595
aF-0.4715446520787431
aF-0.10168237503688396
aF0.034560391238056445
aF-0.2048264018756168
aF-0.30392065994829726
aF0.22008740308174066
aF-0.7181892363948985
aF0.15109672154493847
aF-0.5637952650730508
aF-0.09993436857087608
aF0.09522424796012478
aF-0.09504857237728227
aF0.32539547590309664
aF0.16340554980850994
aF0.31633373118039365
aF0.08354618624547305
aF0.23515463725033225
aF0.45198788024128184
aF0.324980409818949
aF0.0442391452934392
aF-0.0872139648386939
aF0.4118420891422817
aF0.0022639829665816475
aF0.1502862827499015
aa(lp251
F-0.358960616296958
aF0.23766298814979997
aF-0.14392043392124962
aF-0.34118207122583494
aF0.14819688917730967
aF0.034274846923166194
aF0.32726473917195903
aF0.14998987986344856
aF-0.12765724309040732
aF-0.04102917428610657
aF-0.08305258916913959
aF0.05295414963163575
aF0.042178598008695924
aF0.27621608077017706
aF-0.3407972653001084
aF0.08570176229490371
aF0.07735802933675721
aF-0.28224579930583726
aF-0.356862923077815
aF-0.42370982275470237
aF-0.08055261420154397
aF0.27837933661196324
aF-0.16877344548696693
aF0.3890322891223368
aF0.318852083466728
aF0.09646601262774476
aF0.5631049767915562
aF0.08263694808703932
aF0.4649290298789399
aF-0.10498353209541153
aF-0.08364763075811289
aF-0.06492535976467784
aF0.14471394566694934
aF0.31441395990160537
aF-0.0895856694056102
aF-0.4745781629077463
aF0.0851320159528704
aF0.23644060107816348
aF-0.14281760319998213
aF0.13688918134814665
aF0.138875212768959
aF-0.013739149860741385
aF-0.24048659862716096
aF-0.11936877175099989
aF0.06957272303612261
aF-0.29708612635339915
aF-0.037090513732578455
aF0.2098147251444717
aF0.3028908178137731
aF-0.027631266076125437
aF0.2634880922717723
aF0.22087878692698654
aF0.3275294332962042
aF0.07131711882410989
aF-0.38760186598809726
aF0.10217642717562685
aF0.2054406186411753
aF-0.03709334533475521
aF0.2356808015924328
aF-0.20177228208208753
aF-0.08626095006859044
aF0.029398349655850458
aF0.10078891738830116
aF-0.13952825816305453
aF0.021874970904234903
aF-0.0419173984183968
aF-0.23843742640672813
aF0.17572981075049748
aF-0.30023475678307204
aF-0.05453993939068174
aF0.10910075108292708
aF-0.029176527289500973
aF0.24901260241785958
aF0.04165926996829372
aF0.2881606119722608
aF-0.045536547998350906
aF-0.5767298073693222
aF0.016113429649990206
aF-0.16843952819931526
aF-0.18300902671167624
aF0.20525527941673075
aF0.2792424684984498
aF-0.25777518087834267
aF0.1688922472881434
aF-0.218122939594888
aF-0.18317824597296412
aF-0.02334245731301432
aF-0.24497207126981946
aF0.02617304606283212
aF-0.055272677745475195
aF0.032908809810774486
aF0.18462824711224257
aF0.052592889034287715
aF0.38017956249521045
aF0.4279309484431453
aF0.07371309449629064
aF0.03544132090881624
aF0.09009435154847019
aF0.3296017012250611
aF0.04190725126798105
aa(lp252
F0.11468104850784054
aF-0.11914378739266339
aF0.18646164343943925
aF-0.1125158234862351
aF0.1679727487553115
aF-0.05798757010535299
aF-0.025949282997893466
aF-0.1321951033212821
aF0.1090450213110816
aF0.04782071523974778
aF0.10398237697599638
aF-0.127196049827231
aF0.015253625516327652
aF0.049326975125728215
aF-0.11900735179147674
aF-0.026707182833119555
aF-0.17618787040106723
aF-0.12752555530555051
aF0.031002427431189757
aF0.14938913437584148
aF0.08288522253767305
aF-0.028731891869997236
aF0.18009502521312004
aF-0.09876053464390909
aF0.027801751228599958
aF-0.13282910033439677
aF-0.1714327766199647
aF0.19465411382826153
aF0.12563150727778086
aF-0.10698094721288388
aF0.014678894442894622
aF-0.09292363781754699
aF0.006934388008992811
aF0.13495299368288446
aF-0.12018366922852342
aF-0.06306116217138628
aF-0.1392283073456575
aF0.1228188769234506
aF0.01361306972557004
aF-0.1564333417942796
aF-0.032118742098365474
aF-0.05028233057500425
aF0.12958156465913073
aF-0.18643532681216565
aF-0.0982921527954338
aF0.014480367856571042
aF-0.18864533164318753
aF-0.022348480090532724
aF0.011159717672766477
aF0.13659792952199634
aF-0.000557163699282914
aF0.06159836780681049
aF0.013113667045782224
aF0.10629202535452355
aF0.16048055003685477
aF0.10431378154932949
aF-0.08662704965118445
aF0.022098042980480632
aF0.17337110251832924
aF-0.18041395467854526
aF0.1132330801604574
aF0.1704190768371618
aF0.17956547431719758
aF0.19702821872648657
aF-0.17102640065709798
aF0.14871856092434785
aF-0.012099917464478673
aF0.18196702646379423
aF-0.034580251407035016
aF0.13252982622439613
aF-0.0975415649388519
aF-0.03450642954338471
aF-0.1925409702293205
aF-0.16928952774142222
aF0.19100602681087944
aF0.06319071473974067
aF0.008252160368181593
aF0.08368831859766078
aF0.17259323671149165
aF-0.04275379233189143
aF0.13353122734660966
aF-0.04455824205069949
aF-0.033452101512931716
aF0.1066045450080431
aF-0.03832724230066098
aF-0.020825212647607654
aF-0.010729120599121534
aF-0.027324227410556345
aF0.17106414399673758
aF-0.11672253725867736
aF0.08909078067648973
aF0.05493870101997076
aF0.17718696364839728
aF-0.12435201120972378
aF-0.14115629482817713
aF-0.16946751526217077
aF-0.07572762734493539
aF0.09587479513203062
aF0.07900608297777333
aF0.017020145214463284
aa(lp253
F-0.16269489322302733
aF-0.19068091055864633
aF-0.11098623039496519
aF-0.041285751853396946
aF0.06630497460267865
aF-0.18855506359529964
aF-0.15217110956720303
aF0.04149984685471281
aF0.01452846019769466
aF0.08878136297443062
aF0.054418139285995926
aF0.1260901804927292
aF0.10408998808949071
aF0.023486067769676572
aF-0.14029306212471557
aF-0.17352629305122802
aF0.02208917807747826
aF-0.08406761104649761
aF0.03195755614578655
aF0.02844171133614118
aF0.06189463034908704
aF-0.06377312258187681
aF0.14159343470252178
aF0.17342820958636268
aF0.15834118224240956
aF0.15940685095759943
aF-0.021021071458084822
aF0.10890120070733977
aF-0.14884030296789788
aF-0.09802363109022405
aF0.039292831113292376
aF-0.06742353829630773
aF-0.08016307697086816
aF0.1413830580559846
aF0.1396647512507696
aF0.06543300675418484
aF-0.029034252184259313
aF-0.15406413977652225
aF-0.09782245084046731
aF-0.1709940158394765
aF-0.18079247804027201
aF0.02326254157807814
aF-0.13600030849297856
aF0.0536227489679571
aF0.1666865376801313
aF0.11817538347546042
aF-0.01176365148438191
aF-0.02287451537689117
aF-0.11222736925428625
aF-0.04201999445607357
aF-0.17894582064244324
aF-0.020514566984424498
aF-0.12709623596862446
aF0.02205635128372921
aF0.08913031608341127
aF0.03233358069592307
aF-0.12535377342209425
aF0.18287717137419057
aF0.1264953272237765
aF-0.10125944425396552
aF-0.14824235642767647
aF-0.09606104226859849
aF0.0930601202230707
aF-0.09296858675207065
aF-0.11865233765611692
aF-0.013848503389265632
aF0.10390788738603235
aF0.09629730514500762
aF0.015854359348093455
aF0.19915024732440795
aF-0.12051117194271158
aF-0.14999200611797547
aF0.1346792956107286
aF0.01938643237642057
aF-0.18923559297363288
aF-0.03778656777700751
aF0.01345275497422413
aF-0.14638515759858506
aF0.08248608267824786
aF-0.12566591482042577
aF-0.07957516947084149
aF-0.16278264276554277
aF-0.0341729249813198
aF-0.08134330212605603
aF-0.06932050647018309
aF0.05977373914745465
aF0.1737491110155212
aF0.12233597393435924
aF-0.14849606768069462
aF0.13198175764580722
aF-0.09006634911600911
aF0.1958747361208375
aF-0.16524018609890892
aF0.15927692720463743
aF0.18266543937223167
aF0.10101653576789621
aF-0.16213701367130398
aF0.07420508234631668
aF-0.191877354847434
aF0.16182079083516077
aa(lp254
F0.008434945068312692
aF0.3337799799198565
aF0.16651090434261914
aF-0.06276989649038221
aF0.1594638197983751
aF-0.02631262338694153
aF0.14830225850323625
aF-0.28155830605641824
aF0.3239902169942462
aF-0.1082622576600114
aF0.2868775931903229
aF0.0683793520294468
aF-0.338872800845071
aF0.1581669553932081
aF-0.022496196955058913
aF-0.181313245750057
aF-0.3426037748026253
aF0.2642888586555742
aF-0.12015156324051313
aF-0.13114617848896204
aF0.08268615660719753
aF-0.15325289581179946
aF-0.1384419860243399
aF0.14939045247214325
aF-0.20195001691533895
aF-0.1004074646778317
aF0.35858814204605605
aF0.1908040417217483
aF0.057596660550673584
aF0.286291809984584
aF-0.021303288451789353
aF-0.180931684833508
aF0.08673286837205285
aF-0.20960613476028314
aF-0.26717760211776787
aF-0.37910924864084816
aF-0.000571882213151855
aF-0.022454143111865114
aF-0.26173942503868314
aF-0.018070171324306793
aF0.23897956942380277
aF0.1506232234775717
aF-0.141198718570652
aF-0.11150127793504348
aF0.0805131059542595
aF-0.2007443203688769
aF0.18821030639440203
aF0.1634939742915457
aF0.4431368098221169
aF0.0741509396890712
aF0.1993763326012743
aF-0.025088384233286565
aF0.0005444746813638594
aF-0.16532856861144152
aF0.20801439977658356
aF-0.02743607638917785
aF0.022783792207941148
aF0.14045570555540504
aF0.25809878440035866
aF0.022406214799819437
aF0.3985368880027816
aF0.5168727185086055
aF-0.080719436399677
aF-0.1789518894911307
aF-0.04496095379561607
aF0.2592756356875083
aF-0.31452701178887343
aF0.43204599969486523
aF-0.2556244096232063
aF0.19352194017714594
aF-0.2333130909913699
aF-0.11730629640624225
aF0.3553122575252516
aF0.4635106038360388
aF0.23593998276259429
aF-0.3863362511436775
aF-0.002772634876911333
aF0.13322929674851608
aF0.11641373534515012
aF0.18003074828036947
aF0.3282649093109648
aF0.1403388338560637
aF-0.13623504677556514
aF0.25686598398020954
aF0.16553039007516954
aF-0.22720602941101625
aF0.1654624380848317
aF-0.028102402885593552
aF-0.09920828273965755
aF0.11552628602752751
aF-0.32757577433202706
aF0.10301374097638948
aF0.09732553443856362
aF0.08589128084890917
aF0.3158962748403767
aF-0.139808025479399
aF-0.1755977921205747
aF-0.07106039198695425
aF0.01824838718797555
aF-0.4011718143573567
aa(lp255
F-0.12449839281746865
aF0.2623745044068564
aF-0.11664673544517859
aF0.27043884081752806
aF-0.16369403711735012
aF0.07959435782437302
aF0.39252256966263677
aF-0.16050777873978692
aF-0.1087084664933359
aF0.17588313324422658
aF0.13999492097766641
aF-0.31648391538794607
aF-0.18162433301900383
aF0.09928686888668363
aF0.2012995784540311
aF0.04083134133892791
aF-0.15187791660251376
aF0.2781762806112998
aF-0.0928004245677849
aF-0.26424658093597203
aF-0.1765119936202572
aF-0.04460047762735336
aF0.05259309563550685
aF-0.25129719451857274
aF-0.465281497027254
aF-0.1816487044365747
aF0.26563423359315563
aF0.2293022354017757
aF-0.042242525314813935
aF0.020021690534194156
aF0.2977469211494334
aF-0.033825301321732504
aF-0.1913715258104373
aF-0.01571324383719387
aF-0.687940817167215
aF-0.13414547085671094
aF-0.16886792022422326
aF0.01096078820685602
aF-0.31823503029480016
aF-0.1434961657445999
aF0.3629464542090859
aF-0.1752216505568395
aF-0.16711804459852575
aF-0.013856699413244467
aF0.3016465951393791
aF0.033142496206586325
aF-0.23362555929076972
aF-0.019506049994169473
aF0.4725642930768378
aF0.1339316529983483
aF0.054867492843909925
aF0.028313065807759247
aF-0.07491061851684896
aF0.12057652279698908
aF-0.2543172710811844
aF0.15226674203974738
aF-0.0028933703228354183
aF-0.26021253172489334
aF0.2954871124578419
aF0.0685532473340463
aF0.3277149975202907
aF0.36384874510062815
aF-0.3302779632102452
aF-0.2006607990795147
aF0.0436660217217855
aF0.03647239485553653
aF-0.10963287160766007
aF0.05245818304113877
aF-0.11690420129618183
aF0.3333696348437986
aF-0.12893967657632321
aF0.2934128277775632
aF0.17827192506619619
aF0.2986679429229198
aF0.15147475352313855
aF-0.20680461118803414
aF-0.2880936772156261
aF0.023129097649801814
aF0.2695291925272873
aF0.07485737140503397
aF0.27733999042674595
aF0.035423518995703805
aF-0.23576517871696634
aF0.24177494319252588
aF-0.251307853942726
aF0.1063401431673167
aF0.15951818981122023
aF0.01799007264753343
aF0.22191437489035928
aF-0.1759020598720014
aF-0.5096872415302758
aF0.14118788125640994
aF-0.2964744315303962
aF-0.0016512822817284284
aF0.04417665431767936
aF-0.09553897438437019
aF-0.1542149926139352
aF0.06173068124266317
aF0.34135708458020975
aF-0.10402201682314365
aa(lp256
F0.04822469016987567
aF-0.33241660142240703
aF-0.20694601159473605
aF0.16561468519675596
aF-0.22279312672261528
aF-0.19472806718461189
aF0.21526049083639143
aF0.3265401623458691
aF-0.4221138292708871
aF0.1573149827680274
aF0.14470167781206386
aF0.19557841551816477
aF-0.036372575911943573
aF-0.017559115536228246
aF-0.19159203394171706
aF0.1790221687082115
aF0.2796867777659974
aF-0.10902554456762471
aF0.1136972027319559
aF0.016257189142558668
aF-0.08729310098248802
aF0.06779826271675315
aF-0.059634909098001065
aF-0.14688078980444708
aF-0.04437389531860639
aF-0.16997907461820735
aF-0.31598775839469967
aF0.038165346008505616
aF-0.3260707904666884
aF0.1803166141413189
aF0.2746587005157044
aF0.452197678861276
aF-0.07813285206331885
aF0.23262084103919028
aF-0.3162149140615296
aF0.1928505076043958
aF-0.2707378729065782
aF0.007700776263586354
aF-0.18296964307907362
aF0.2083845021339052
aF0.004918733818182306
aF-0.3709806187888517
aF0.22184572736860528
aF-0.3763051188853732
aF-0.24867556941589417
aF-0.22527453508818618
aF-0.13933367159040494
aF0.10456139688004988
aF0.04285882810296602
aF0.09604538674665632
aF-0.3779620346818862
aF-0.07061629193501313
aF-0.10992889436020428
aF0.1751122490320345
aF-0.29944121561173637
aF-0.0013488321616891836
aF-0.18982592216942912
aF-0.0159149709651126
aF0.20183148791943387
aF0.3857164168307155
aF-0.5864283532568881
aF-0.22089807607504752
aF-0.007575783559626756
aF0.25357352021093094
aF-0.1911641081933629
aF-0.1732549041462172
aF0.013134175740221804
aF-0.6059408282391501
aF0.29797925419587595
aF-0.15027463396760501
aF0.1905064487073466
aF0.46105115211094105
aF-0.1933400530051433
aF-0.32279431882886667
aF-0.13534986815147976
aF0.37868406306755775
aF-0.13772996671235394
aF0.22144429499795476
aF0.24763021618090258
aF-0.00145118047735272
aF-0.2065682210644609
aF-0.2251972155492855
aF0.042978139909274765
aF-0.5021517654851786
aF-0.3663815819799958
aF0.1679383590768161
aF-0.02210928451102033
aF0.1009785623472327
aF0.00662005766596133
aF0.2546811005145153
aF0.10181326006023064
aF-0.362179171977528
aF0.06472866872146778
aF-0.27583180100700233
aF-0.056990089713797605
aF-0.09982333912682215
aF0.1634405076093605
aF-0.16957425253163533
aF0.064730702368214
aF0.23552462166043647
aa(lp257
F-0.09292492631451042
aF-0.42385578965805665
aF-0.054576379833356316
aF0.2700280290676383
aF-0.5557441467560194
aF-0.2345319309037997
aF0.25523759579537897
aF-0.09987936217372188
aF-0.3585661350360613
aF0.38817229298252576
aF0.371515987294194
aF0.27671253502061577
aF-0.07143468067530473
aF-0.32681630881053986
aF0.23504295245466122
aF0.21672028259510515
aF-0.020961274134285304
aF0.14483399739945538
aF-0.17840580750635365
aF0.12408911954175203
aF-0.24566921334533892
aF-0.14032530359514117
aF0.12599159551891848
aF0.15697677939508284
aF-0.3033419773419669
aF0.17698820398357498
aF-0.0925282143992394
aF-0.3914613224645492
aF-0.22429674917111272
aF0.17954968227164964
aF-0.3437181582881574
aF0.26860481365134853
aF0.21757683923157303
aF-0.007011194365768204
aF-0.1995593976351544
aF0.4586379866371834
aF-0.35397429215445114
aF0.14375094780110415
aF-0.2636897342641982
aF0.3942586504399643
aF0.26445670075023375
aF0.008713026544822216
aF0.22701906360906637
aF-0.27435993998030106
aF0.32548488313413926
aF-0.01755908289782987
aF-0.10407698159667206
aF0.026507282792483277
aF-0.17196614112477118
aF0.0985735151174973
aF-0.2901190429337107
aF-0.15540830694438587
aF-0.09977628809598442
aF-0.10722365754278837
aF0.04311140674352265
aF0.23059438356718057
aF-0.44708279306181636
aF0.15735494004124906
aF0.05564665056270425
aF0.24795350831852303
aF-0.021767738379150522
aF-0.19966389858553296
aF0.08076306145777257
aF0.29243188722699426
aF-0.035565696474116455
aF0.049651660774001835
aF0.04247862610190966
aF0.07404967165434649
aF0.5079494047581532
aF0.20071357039582857
aF0.5165110112203236
aF0.675510537239831
aF0.1743049812800596
aF-0.37478097069275074
aF0.041312535828415056
aF-0.1542051240209715
aF0.08782390682133515
aF0.2313742997799851
aF-0.10727247936436697
aF0.10939140632509961
aF-0.31431848106813903
aF-0.5247979666181459
aF0.5256191709768184
aF-0.27198430303058213
aF0.018092882853347654
aF-0.15062069768495298
aF-0.11161612116674659
aF-0.43074232710192445
aF-0.3146818856021111
aF0.36658456919538174
aF-0.317291331902755
aF-0.17874499561780394
aF0.08207203867233688
aF-0.2215772800387055
aF-0.1389860811182436
aF0.19242013602986943
aF-0.24664485142547102
aF-0.6474080196140598
aF-0.2891139489970743
aF0.16704818235822275
aa(lp258
F-0.33415851932233676
aF0.3232837022439686
aF0.004687762826572132
aF-0.002638976152441566
aF0.1759357394671162
aF-0.2327215806819646
aF0.33432242784106175
aF0.035245683638063165
aF-0.19256624678953935
aF0.01851448478743372
aF0.4954253352385014
aF-0.05156895087098041
aF-0.3615431286724052
aF-0.30874270968591727
aF0.0283475926963287
aF-0.13456847389034593
aF-0.19947794707802546
aF-0.0461644075817293
aF0.0940422076111306
aF-0.532928799733582
aF0.01590291896143025
aF0.4312755033492043
aF0.3535419455293956
aF0.3293592209573639
aF-0.17524748303682944
aF0.13798422343236524
aF0.5655160066493633
aF-0.2869320359522461
aF0.33195657758534325
aF-0.24968943992493173
aF0.1174147756532952
aF-0.25137007938109923
aF0.12241842455463606
aF-0.3554643653759038
aF-0.2482714421804538
aF-0.4877068924295803
aF-0.19581401361034198
aF0.29389265486202765
aF-0.089952681001014
aF0.158834186008587
aF0.022886177881418793
aF-0.09832986841386054
aF0.13416366212608505
aF-0.15744975386837473
aF0.3585477727704682
aF-0.029575390548756134
aF-0.2982557906541543
aF0.16045371755488833
aF0.3931349465234554
aF0.20953485601280922
aF-0.09790392806439759
aF-0.09508069728560921
aF0.14381906020687416
aF-0.3411976518073496
aF-0.15810397617841898
aF0.18401092426555954
aF-0.2337570332330277
aF-0.10199791209134226
aF0.07439679353527519
aF0.13328756086030846
aF0.5596805282678875
aF0.32972778543730696
aF0.16623023929560038
aF0.03870827847360676
aF-0.15544296340049285
aF0.15414511931748964
aF-0.4085177850836599
aF0.545555355619743
aF-0.03808827699892163
aF0.29544792687329047
aF0.30930985307162734
aF0.6585819462318411
aF0.08741776029297514
aF0.3225386765445882
aF0.09235167354298796
aF-0.24222883049365732
aF-0.41311883158595425
aF-0.4715914421222784
aF-0.19651870858701184
aF0.2678855468440373
aF0.030557595656330303
aF0.028683851975798518
aF0.1148861692343699
aF-0.21527734758502134
aF-0.05871380626090092
aF-0.052681310584085275
aF-0.09839592147165607
aF-0.1430171901091214
aF0.26636277756526067
aF-0.16739998398057496
aF-0.6633628682296713
aF0.2749429483988642
aF0.10971665170570674
aF-0.22404222310419203
aF0.08917657693148069
aF-0.24094559743156926
aF-0.4219585406496834
aF0.13992630730585476
aF-0.2358030347248156
aF0.120157849997052
aa(lp259
F-0.19322062593454875
aF0.1893010094679496
aF0.20129493384512318
aF0.026239888674426004
aF0.1265728166962091
aF0.12652812404622474
aF-0.08023431041361098
aF-0.12673224510371148
aF-0.0638402792771874
aF-0.18187745530988184
aF0.03694323149267201
aF-0.3113255560699451
aF-0.23181074982176136
aF0.10730742740123955
aF-0.13059681847085083
aF-0.04989733567156767
aF0.06330644434105538
aF-0.044169311935692415
aF-0.024699961365389333
aF-0.3925014519196839
aF0.0851255526194665
aF0.4036185007365853
aF-0.011602050350532094
aF0.030911135044250533
aF0.10335806220548274
aF-0.15333892678574285
aF0.48250355165672254
aF0.10229179598917956
aF0.2800287792896677
aF-0.28432444140059393
aF0.04263029946405377
aF-0.3427239044371254
aF0.1947736237150649
aF-0.21464523288603002
aF-0.2576938284756796
aF-0.5712672113757503
aF-0.09867399555562474
aF0.176456519449156
aF-0.24918985868275964
aF0.19972196871114134
aF0.2676559625513645
aF-0.0763875735234008
aF-0.11461150545077002
aF0.13741989480741187
aF0.1695109764926799
aF0.06596656443737091
aF-0.16224037066344751
aF-0.026972542555156166
aF0.34236054771313873
aF0.19118894692885433
aF0.18526945349639865
aF0.422893961055531
aF0.029626828245736533
aF-0.14599692525012714
aF-0.17645779325672115
aF0.1364363762808543
aF-0.09013470456074642
aF-0.196249085739705
aF0.07870800204197212
aF-0.2326246277260289
aF0.13794996303972668
aF0.16474485332254346
aF0.09965579881261435
aF-0.12179209073892147
aF-0.18836619958853273
aF-0.1250963043488362
aF0.006763907341770668
aF0.27645470216713874
aF-0.43478133217715886
aF0.30101088006439614
aF0.08550590500139874
aF0.03819607432101281
aF-0.06017455964510606
aF0.09512860497450765
aF0.28217480498142467
aF-0.03204486198463691
aF-0.5132958874637195
aF-0.30134826930635755
aF-0.16620687980701768
aF0.24796046352231765
aF0.32604993404064503
aF0.3113427759585973
aF-0.361716553135769
aF0.07410358719480423
aF-0.020170212017327754
aF0.19778166417956677
aF-0.05172043649064597
aF0.05016882880437443
aF0.03178916378053592
aF0.10748764635289572
aF-0.42267623640148316
aF0.34293773108907527
aF-0.0057240727168439655
aF-0.12205754675015855
aF0.2257829228656582
aF-0.09256298235186629
aF-0.11905133914556185
aF0.044631396609107726
aF0.18583442833579156
aF0.24640081145162396
aa(lp260
F-0.15908850239023212
aF0.1867886806044995
aF0.02257017741235337
aF-0.11474655698944441
aF0.07817302642319757
aF-0.01884664191318214
aF-0.18311496547361586
aF-0.16329285443110272
aF0.15310039450225288
aF0.036176232014593246
aF0.15727940336633167
aF-0.09297230207773724
aF0.09731111271203374
aF-0.08747456062974882
aF-0.13371058439521294
aF0.1664818853572531
aF-0.13451537755272447
aF0.01274555043846809
aF0.014838421454985401
aF0.13937023658166742
aF0.028426428707392315
aF0.1860635760056389
aF0.05566973602864117
aF-0.0466632726752339
aF0.02522866404368168
aF-0.12554315077253433
aF0.14468121554178265
aF-0.15199852427098004
aF0.1406280332213556
aF-0.038102034121128614
aF-0.037905743763949895
aF0.04746102928775672
aF-0.14964639118451462
aF-0.08929890522814406
aF-0.03790494774351966
aF-0.18840728358910017
aF0.05464602963422316
aF-0.18972823958248505
aF0.14838860092066708
aF0.04560723202065273
aF0.05079803150601542
aF0.13704786328847102
aF0.05800907899479657
aF0.00576821111902448
aF0.17220091299748108
aF0.06771899337175324
aF-0.026600518510591392
aF-0.12508407853945208
aF-0.17036343100906112
aF0.045151335493236605
aF-0.09797065263646942
aF0.16779711565513106
aF0.004725187758076427
aF-0.1990427390946982
aF-0.060344114442831
aF-0.19875279110942234
aF-0.11788299777762923
aF-0.15190119327688578
aF-0.01668266679525726
aF0.08858317400587795
aF0.03029994213473791
aF-0.06677641871473713
aF0.0961871626275318
aF0.1519997417145466
aF-0.16602180993181884
aF0.05664324286262612
aF-0.17606137515603906
aF0.07806960803811858
aF-0.07830550302211409
aF-0.15723096568198294
aF-0.1418125950601406
aF0.07367495979454519
aF0.1074902452627105
aF0.003393751036346343
aF0.11597297042345489
aF0.1238853554429567
aF-0.1917820250942437
aF0.04174967290927639
aF0.02938417221621345
aF-0.11484764396796346
aF0.172933225075376
aF0.1354312599289536
aF-0.05285720778562797
aF-0.09606543507325119
aF0.02275744301147506
aF0.003226448680678201
aF0.16597188537678936
aF-0.1895015182442689
aF0.0019569379600553327
aF-0.02950609021014472
aF-0.00469143365015548
aF0.13400603767296337
aF-0.17857938036911136
aF-0.06813925191650921
aF-0.16758332715118962
aF0.13870667270725168
aF-0.10702969288599601
aF0.19571618744264557
aF-0.11367042449938136
aF0.05784406798554326
aa(lp261
F0.07797280724189153
aF-0.11703476675584731
aF0.15188081498964714
aF0.15800131949443233
aF-0.12966613493939808
aF0.14080273688603795
aF0.17167896148887
aF0.18166030023784735
aF0.1656152183261588
aF-0.12844299523471062
aF-0.012234002047069188
aF0.14788426213825656
aF-0.17877332125916132
aF0.07472282827094408
aF-0.1293375532708671
aF0.017474453335407203
aF0.07740904962375843
aF-0.0015267270606527164
aF-0.08580680934520601
aF0.13670865991456466
aF0.12518712126166437
aF-0.19156111163105036
aF0.016103084350868612
aF-0.166622678791558
aF-0.13025535727365506
aF0.11295385341309518
aF-0.15291841448641483
aF0.16219945539363
aF-0.10857367514979004
aF0.18278888307211127
aF-0.12603879228161274
aF0.13301888859484973
aF0.08079990849823329
aF-0.04556901884671756
aF-0.18963592473553392
aF0.08113619683659523
aF-0.07104755834672437
aF-0.1614327036602892
aF0.08150595909686045
aF-0.07045400846568978
aF0.1589709174470541
aF0.1677037757486812
aF0.12501262018558298
aF0.13064187491145648
aF0.10145010728136732
aF-0.07668754037259229
aF0.1785508285029278
aF-0.13765454060754936
aF0.07775293793868704
aF0.1883318277439689
aF0.002736475990277633
aF-0.06211363267281344
aF-0.014999047500331745
aF0.019472802167851255
aF0.05883877796534336
aF-0.03053684826875628
aF-0.08322841526386017
aF-0.0592524790435945
aF0.14598883685029107
aF-0.07555781402052045
aF-0.1845593859915419
aF0.14949963128632532
aF-0.019480108115184015
aF0.1820416154665445
aF0.08549933980323098
aF0.016779521085814927
aF-0.06657589439604608
aF-0.15460339532633696
aF0.03424898793329433
aF-0.12969911003373585
aF0.13934814961610703
aF-0.022189788290470355
aF-0.05759257906298718
aF-0.05707196201358798
aF-0.004726660548059115
aF-0.08518691733997341
aF0.049875264010189074
aF-0.06551462751650307
aF-0.17636350908225465
aF-0.13220966282103708
aF0.09955720552919084
aF0.10406841128609966
aF-0.12002109095687055
aF-0.14073090520728124
aF0.1883116830304063
aF0.16567193756088192
aF-0.03769261141477879
aF-0.19039183682320826
aF-0.09169602784264286
aF-0.13681939002223542
aF-0.15411931274488552
aF0.006741328805431776
aF0.1710565504814026
aF0.18042077533258766
aF0.1815617995840907
aF-0.0006995371904092529
aF-0.10550658651910619
aF-0.1297579399017386
aF0.1679716213403588
aF0.031875871094209966
aa(lp262
F-0.18064760632635588
aF0.05919070400669502
aF0.0030114960230289665
aF-0.11531092039590647
aF-0.08272165531962773
aF-0.05820685414972977
aF0.33017076641593934
aF0.10431151227309327
aF-0.09561488856679028
aF0.10362693716330439
aF0.1691690289456538
aF0.23665914808174912
aF0.03030435088626056
aF0.32252244540101954
aF0.06608260910586991
aF-0.15657263080894462
aF0.034554536119484905
aF-0.24757195394092085
aF0.07873420858541125
aF-0.11414934265544048
aF0.038805947635350314
aF0.011360476752805448
aF-0.11672831263373921
aF0.18880205402335748
aF9.014940996386546e-05
aF-0.17354400528474456
aF0.3029933512178991
aF0.04007513673401153
aF0.25124206299401347
aF0.010758102906710875
aF-0.28626034611678847
aF-0.18277513138409607
aF0.0630172526536786
aF-0.058443518622792505
aF-0.11926828290252806
aF-0.1648623334339431
aF0.009079754347484542
aF-0.006673344108361517
aF-0.11975904692149224
aF-0.2221070899527784
aF-0.023862429302200002
aF0.13705714315062656
aF-0.04311084267886554
aF-0.29411773682648756
aF0.0037092376890479417
aF-0.42482961796483376
aF0.0017444050305203034
aF-0.11582766586895808
aF-0.017665634511231387
aF-0.20126000554958212
aF-0.07318146135374637
aF0.22153225032703094
aF0.13771540213038255
aF0.030421814863605828
aF-0.06503631337372898
aF0.346205700019295
aF0.12269015317900234
aF-0.11488052287916457
aF-0.03506642952708927
aF-0.06418234376402986
aF0.03253900030473143
aF0.35745077403036674
aF0.0715834721785
aF0.10178044408568897
aF0.06663938820037431
aF0.02019549480587955
aF0.03876305520654958
aF0.1097995825870956
aF-0.3560566695599336
aF0.09415331375251977
aF0.05279460807532077
aF0.09554240215725293
aF0.3582886270228754
aF0.06531093093609197
aF-0.09602999155752984
aF-0.4357826318924294
aF-0.09526084084146536
aF-0.02273681871679343
aF0.08766384514863185
aF0.07600008148791097
aF-0.09809579427932183
aF-0.03208732730176931
aF0.1803385297544977
aF0.1110367677679327
aF-0.0058101770604836135
aF-0.08702908025462323
aF0.04597803543954624
aF-0.31437661197633965
aF-0.1331278598537989
aF0.28006400730018555
aF-0.32821428312070666
aF0.3355941111363987
aF0.14033447720895056
aF0.15985447330763988
aF0.22292509515510622
aF0.040882120012267334
aF-0.12705806116605015
aF0.06553983187975117
aF-0.18267697697140242
aF0.07086496929062852
aa(lp263
F0.5318772644506933
aF-0.28186020256395095
aF0.23044860736740946
aF0.12056713543584154
aF-0.5370056112815274
aF0.6915911085351512
aF0.725615130494527
aF-0.2418826003223356
aF0.18369358466669153
aF0.24345705775549115
aF0.11866155209993162
aF0.20640166813781852
aF0.3768271490664039
aF0.7927477781351511
aF0.48897989268740505
aF-0.1254403961699728
aF-0.303270486462463
aF0.2068014696365778
aF-0.04140069737619159
aF0.0806288643434545
aF0.39949601399437124
aF-0.6870785046138872
aF-0.48388689840206933
aF-0.13932784275876972
aF0.357560331498109
aF0.04406684607831728
aF0.06981790000573652
aF0.5712632945725716
aF-0.2099130037418039
aF0.5245938077292986
aF-0.2321517846542663
aF0.29154534077082594
aF-0.317222785768682
aF0.09222969429418922
aF-0.5033979084708899
aF-0.15602356568265763
aF0.09408714468986328
aF-0.4971849395568094
aF-0.9918444846248318
aF-0.5228729636955955
aF0.1731153882019844
aF-0.3216101912742389
aF0.2168999150278796
aF-0.1808953487503616
aF-0.4260759813290869
aF-0.28952416353016885
aF0.25754409805277617
aF-0.043141604383299684
aF0.6051929855658682
aF-0.04881906935762377
aF0.4799001983382008
aF0.31780032481257553
aF-0.3238908924426008
aF-0.010922289400861296
aF0.04981091672204109
aF-0.19180965530587316
aF-0.13984066776502058
aF0.13082480675284291
aF-0.09679055206760068
aF0.004673990475303138
aF0.23218239889214118
aF0.07788915830377811
aF-0.7044152529756247
aF-0.5340715554686163
aF-0.23329533334686559
aF-0.37856781295281194
aF0.2394130184088129
aF-0.12744715204945625
aF0.3336577518374921
aF0.7880102633184657
aF-0.2052360595674616
aF0.03627697123766683
aF0.3406852129089056
aF0.010751065761885652
aF-0.27674529377760765
aF0.14783367937327038
aF-0.07342907833156956
aF0.5137667278354159
aF0.29174718548290185
aF0.14903510057341635
aF0.2661412323136887
aF-0.501893023764479
aF0.029107164930173245
aF-0.0578534305381356
aF-0.4519422006513516
aF-0.1796087207937557
aF0.09916520185472637
aF-0.47812344728677647
aF-0.2639569230616121
aF-0.03811870464391818
aF-0.16933976792454486
aF-0.21631365991463838
aF-0.18203508444078106
aF-0.13434761244106336
aF0.25502104864383734
aF-0.0568439741525502
aF-0.22096931062303096
aF-0.310455911402604
aF0.3776933909839305
aF-0.3597117514322995
aa(lp264
F-0.11507414439352881
aF-0.18830655979401653
aF-0.10000607513743459
aF-0.05731621046326012
aF-0.5888949004465888
aF0.4279179749174349
aF0.41888868651674366
aF-0.1977041791438528
aF-0.10092749445508327
aF0.1596782459416991
aF-0.07389416421215685
aF-0.066344120206445
aF0.25978902079173855
aF0.3804751572747622
aF-0.15520465305042677
aF0.18669022033760463
aF-0.2957538094138836
aF0.5511424692612295
aF0.20763025536491378
aF0.0005930057669567301
aF0.21136488273237877
aF-0.476258523209381
aF-0.28218376166129167
aF0.07171755875667186
aF-0.13715534420710218
aF0.13761701108817997
aF-0.07188648913736004
aF0.5286175968005632
aF0.19807073962425079
aF0.37599489571373457
aF-0.5931445219606617
aF-0.07208387828005167
aF0.3083852885177614
aF0.04501454385377627
aF-0.27784361926755113
aF-0.050286331579648826
aF-0.16944491740505477
aF0.2615347495480191
aF0.008301799437066593
aF-0.11356502952074599
aF-0.07960362697548537
aF-0.31017749896759916
aF0.11015168732016264
aF-0.5690819563530449
aF0.0900244988982354
aF0.37898151909670424
aF-0.06171216929041363
aF-0.42710290722574124
aF0.6457984788584026
aF0.08984243075483413
aF0.11007649025325904
aF-0.002031000509340408
aF-0.31411667113196107
aF0.298662934003324
aF-0.07729748846256175
aF0.12100497653089339
aF0.10981417647126193
aF-0.35370333741588034
aF0.19791714545906366
aF-0.10400745294663008
aF-0.15425728885997683
aF-0.21027984710455652
aF-0.4319681759084808
aF-0.3474152525256095
aF0.44768512115257947
aF0.4468422328738412
aF-0.32718437611478723
aF0.15928255979583428
aF0.3804035777116875
aF0.2192760711286571
aF0.30433035835184685
aF0.08818527867189788
aF0.6031594520310265
aF-0.022107956042320596
aF-0.38110521815994886
aF-0.06654102143569533
aF0.2975905473237428
aF0.6391125095986787
aF0.22347730965419332
aF-0.1778332089275796
aF-0.10583451712325725
aF-0.6473984796438899
aF-0.22087457406591965
aF0.17373860163241692
aF-0.0639017619119603
aF-0.7829006900283542
aF0.4548653616049715
aF-0.7225067528880206
aF-0.03540573167101893
aF0.20741712686648298
aF-0.22596091793914314
aF-0.006598873546662413
aF-0.11982408265386289
aF0.023517025434872996
aF0.4584846656736587
aF0.38738944300569
aF-0.5269672887517713
aF-0.7105185937022235
aF0.046685467718544864
aF-0.43211479741893616
aa(lp265
F-0.35526244480184843
aF-0.2713472090837833
aF-0.4232927614070702
aF0.15400583947276836
aF-0.5829126787139779
aF-0.40706042515464563
aF0.31977357464956163
aF-0.11559935674035801
aF-0.24433447753136012
aF0.40938902398923466
aF0.1563492688351401
aF0.3280565589243936
aF0.25950232290035724
aF-0.14474012387804824
aF-0.001060418680739728
aF0.5184102918147289
aF-0.1367793789587063
aF0.1935191788005279
aF-0.11346983379957476
aF0.11282798702549778
aF-0.2123061741217469
aF-0.2224463702985199
aF-0.02376545564752342
aF-0.06932156642157254
aF-0.12876596831403128
aF-0.13275005046654761
aF0.1041000913512742
aF-0.005479892599707055
aF-0.05760102771390242
aF0.28792526366523774
aF-0.5280078288384044
aF0.18544049663849024
aF0.18069508070445162
aF0.3349348947961191
aF-0.08707028390892392
aF-0.07434957747134423
aF-0.08690168498177005
aF-0.02978757500013495
aF0.0771653828525255
aF-0.23263610537438573
aF0.1235814197888898
aF0.38074698586629896
aF0.22077568306098072
aF-0.6397054535848792
aF0.4107955558773454
aF-0.09692337981961222
aF-0.20454760167172303
aF-0.13533670138857087
aF0.17354734982591252
aF-0.2317947971103139
aF-0.02850731273401377
aF0.0013429862007825768
aF0.02190485570405919
aF0.1752121691603533
aF-0.01460536148412329
aF0.28301004667906077
aF-0.07478142273439391
aF-0.07513355717336032
aF0.25896238375039743
aF0.03791738550403847
aF0.18575996657463004
aF-0.040122403640428315
aF-0.15201631977101907
aF-0.010466205628702922
aF0.018795314599397036
aF0.24920115536433693
aF-0.20906413478094987
aF0.043381524336762414
aF0.09869984404612943
aF0.19970828679763655
aF0.2681978728691843
aF0.44638475223091867
aF0.4160547334026906
aF0.014562949963797008
aF0.17703588115465035
aF-0.2021430366602656
aF0.1384116785195498
aF0.36036424533706457
aF0.23595905608395681
aF-0.11623589320732461
aF-0.3421190798867278
aF-0.2438809054508941
aF0.32110853257292654
aF-0.23038673309110527
aF0.16354390629527252
aF-0.35407547800683437
aF0.04256055539872707
aF-0.16288364916514947
aF-0.018843753819355817
aF0.46460856795566113
aF-0.13476492391644426
aF0.1862409621090723
aF0.44315712408473823
aF0.07799862452489792
aF0.3508849813815521
aF0.1859727398958955
aF-0.23472397587454968
aF-0.12138647088476598
aF0.09161184575392457
aF-0.27055156388230994
aa(lp266
F0.06436703141860924
aF-0.05695949733845713
aF-0.09014549975120141
aF0.11643118214768929
aF-0.25402652616354543
aF-0.01296620204900255
aF0.21585166531834682
aF-0.11759976130034004
aF-0.30379670292451016
aF-0.09904084290750553
aF0.31710259610560665
aF0.0952188813286939
aF-0.28318384583767536
aF0.11663300705076854
aF0.0911531539256994
aF0.0016748044810666826
aF-0.20393451832533255
aF-0.3331346931747936
aF-0.2730613709556464
aF0.04678591815465628
aF-0.25418428630237244
aF-0.09105352292574012
aF-0.023673549163480283
aF-0.3458311945073731
aF-0.09599894867669702
aF-0.21627704147396884
aF-0.052575958074702674
aF-0.006411850083806446
aF-0.05415544970466415
aF-0.18439770040634093
aF0.22602672785948535
aF0.14507635561733134
aF-0.3626199903591777
aF-0.25489125794934836
aF-0.132597076988715
aF0.14995986574993678
aF-0.36394931993349766
aF-0.28027927478020903
aF-0.2475290638754045
aF0.2090768745495665
aF0.1876890567958378
aF0.004255519273071249
aF0.33117524175786567
aF0.3215819028728878
aF-0.056147364910114
aF-0.3994511641300761
aF0.20451690168706238
aF0.16720015639757774
aF-0.0468524279171219
aF0.11791682533620203
aF-0.16975825339765224
aF-0.03281373085997653
aF0.23658357673937694
aF-0.12054119282419407
aF0.018285194940072746
aF0.14861499979306148
aF-0.3610186405962687
aF0.5446741950982976
aF-0.1721030004112747
aF0.521529849999232
aF0.4223370022445401
aF0.3341168334415806
aF0.1376003477515837
aF0.3286563925805828
aF-0.5266609064555912
aF-0.4956956862044506
aF0.030324514507626146
aF-0.010674995155656952
aF-0.1055408262104369
aF0.4853680520453264
aF-0.072689656158113
aF0.30176214536871937
aF-0.19544759085382116
aF0.2805366744625467
aF0.2310035026165418
aF0.11332292662155961
aF-0.1083600057021987
aF-0.14019956362382488
aF-0.03312145312548707
aF0.3027705143546404
aF0.23556626555744056
aF0.2785320894989833
aF0.4426002866521945
aF-0.3092871807245036
aF0.20746488513672875
aF0.42169945358711863
aF-0.4523597190981063
aF0.1851688639800795
aF-0.09680962656332766
aF0.07022048997635788
aF-0.36974695896429294
aF-0.03150897488574431
aF0.1710001076069657
aF-0.2685800658416689
aF-0.24933918338789868
aF-0.04629969702284907
aF0.12986499896079798
aF0.051769123670227575
aF0.25689918876603507
aF0.2350416870161171
aa(lp267
F0.14694616887540757
aF-0.11789880162767225
aF0.4044417462107957
aF0.16466301469869402
aF0.33764810529407857
aF-0.017334170616788297
aF-0.14405127448374686
aF0.2656958618724432
aF-0.11161384990170503
aF-0.22098126950236008
aF0.46596855681571464
aF-0.26525879107467
aF-0.2133526913284885
aF-0.1378411389383181
aF0.16399014166944823
aF-0.5072198635212428
aF0.1680580272902695
aF0.1444538526462616
aF0.21131903103376098
aF0.06492982157411752
aF-0.07773316508083367
aF0.34478458957105496
aF0.23711990796889265
aF-0.1677460859843942
aF0.06663453412002428
aF-0.07048877605716974
aF-0.19118929767943846
aF0.009894623820618337
aF-0.06502654248714863
aF0.0037954131782492527
aF0.4214182143799874
aF-0.39677946603005043
aF-0.38440336854130563
aF-0.26075669280202823
aF-0.1466579184960962
aF-0.3293901544144065
aF-0.2773676287374218
aF-0.24291614430069391
aF-0.1088168746464682
aF0.20351082880307791
aF0.13681925937267148
aF-0.1042623045252259
aF0.19858566423782154
aF0.5903342493148932
aF0.00803434749341632
aF0.12179469137173478
aF0.02759131194070051
aF-0.0016358590375491287
aF0.24467678564015058
aF0.1882057703913741
aF-0.016825166610230254
aF0.03738957118260662
aF0.18439387442207456
aF-0.10434567716341732
aF0.009942251434608588
aF-0.22040853312168396
aF-0.15887065850737328
aF0.22006361577897843
aF0.24748057541975554
aF0.31285917578419986
aF0.34685086517674846
aF-0.044521653824041524
aF0.372941394783789
aF-0.09913586513922851
aF-0.1694028118583665
aF-0.15985225382772603
aF0.2828593469171744
aF0.02876558952931225
aF0.2727180434296836
aF0.2116329687791003
aF0.18552612011530664
aF0.40988129871576146
aF-0.2231010869037448
aF0.10859034388220179
aF0.12328385448988617
aF-0.021258126670626307
aF-0.42710184847045113
aF-0.3091116852840899
aF0.21333838321790285
aF0.3398794283005441
aF0.4726554247661459
aF0.04625088687831725
aF0.24013373291136247
aF-0.09272103710127186
aF-0.18887121816391572
aF0.28478692132380384
aF-0.07492857376149895
aF0.22408562540639992
aF0.21032011734609443
aF-0.4316087915689985
aF-0.29403098417483653
aF-0.174198228753697
aF-0.38936920307960915
aF0.04946296276708055
aF0.0189457096847175
aF-0.2433661488210939
aF0.20221915734579549
aF-0.025990135791061377
aF-0.06748646445836447
aF0.12789503883876274
aa(lp268
F0.042356630412632636
aF-0.16821491063471503
aF0.01037259519243959
aF-0.087232605917984
aF0.014207436074523419
aF0.015024731076346585
aF0.001993643237909338
aF-0.07864180542826117
aF-0.14140550773712376
aF-0.16940158373714576
aF0.09958509705282798
aF-0.025348172300307413
aF0.0365445296228958
aF-0.0620167262747839
aF0.17106231293930646
aF0.08273161762039341
aF-0.08099802785386324
aF0.0663214120003342
aF0.08000750326337354
aF-0.17393067113426636
aF-0.09270710625194378
aF-0.10912843179211568
aF0.03626728474012044
aF0.004363594655541019
aF0.1274263537289104
aF0.02050069867955207
aF-0.07914707762758191
aF-0.026227248949984756
aF-0.15608823974772362
aF0.1189458668486865
aF0.10456250996374507
aF0.1659809674963582
aF0.16999965939958955
aF0.09388523756152753
aF-0.0010524330816880376
aF0.07022415828645419
aF0.00874278720307119
aF-0.05259076357892541
aF-0.09582031786961068
aF-0.05667419306130421
aF0.17553563917457377
aF-0.18991909346127206
aF-0.12307785251755307
aF0.12838273498918137
aF0.17935201634261377
aF-0.11810810611837964
aF-0.004723911955725466
aF0.001637261027193726
aF0.06612528809594342
aF-0.11087261208280126
aF-0.0971564214249249
aF0.033661324576745325
aF-0.16748665018607634
aF-0.09996325760265433
aF0.06291444181182522
aF-0.09834371040096711
aF-0.06889524306894743
aF-0.000479227860227129
aF-0.11189103169704318
aF-0.04674436327227731
aF-0.17933921564725852
aF-0.10769907439314118
aF-0.13146115271231998
aF0.11079021843861551
aF0.04922835431550657
aF0.12956291845260834
aF0.0030491484213419364
aF-0.15450315350588995
aF0.1560846317918716
aF0.16290502424861233
aF0.020347219465710185
aF0.0526116759945805
aF0.1541778363456996
aF-0.035099801604581156
aF0.035952743522624155
aF0.009309786482665321
aF0.12417597543039384
aF0.0470844335397849
aF0.01750069184428685
aF-0.15734272356847467
aF-0.1455187982335999
aF0.016788953405244132
aF0.07537427139614943
aF0.17980752588513246
aF0.15383585401807656
aF-0.007614425246217275
aF0.04393870100469566
aF-0.17639127022422713
aF-0.009614478631336415
aF-0.019844318920643755
aF0.16470182275713924
aF0.13849364022482435
aF-0.07396143532566153
aF-0.13798922485434606
aF0.18510543556098757
aF-0.06378399803430879
aF-0.19944238651967836
aF-0.10661665724309509
aF0.08124689426546901
aF-0.13398607622696332
aa(lp269
F-0.10607419831671952
aF0.014018176079717067
aF-0.17855398237128092
aF0.0733889863716841
aF-0.049336817069424145
aF-0.16149656963447814
aF-0.00022030924945987503
aF0.020721868240987276
aF-0.08747669404330768
aF0.07503620956511445
aF-0.01894189858575384
aF0.17871150522398438
aF-0.12396351923786536
aF-0.018360189192990335
aF-0.03321667303651707
aF0.06921206470052917
aF0.10075492604188929
aF-0.042067680172420956
aF0.17123251259939873
aF0.18934671156643235
aF0.01267986495704899
aF0.14290194133313852
aF0.010992742104790223
aF0.023453567933086526
aF-0.11855350616392903
aF-0.19298938245490457
aF-0.08078279794386418
aF0.004859456216626853
aF-0.04621133046824003
aF0.187327857668182
aF-0.023809324760449474
aF0.14004605498811465
aF0.03368316941834895
aF-0.16989312657938507
aF-0.08235779928879784
aF0.07017742610795534
aF0.003338248806404357
aF0.021692164895693332
aF0.19210685747397332
aF-0.10912933711707634
aF0.0006007827039641535
aF-0.023821713236820585
aF0.05923660503419842
aF-0.07579915311726207
aF-0.11426063020097979
aF-0.051096906505006055
aF-0.10056973228689668
aF-0.1684159081605847
aF-0.08752796346301653
aF0.008301800867938898
aF0.028520276185063042
aF0.0036306520371401454
aF-0.11448674819580518
aF0.0017436015099024779
aF0.1526419109583739
aF-0.18305838992126994
aF0.09642954121453418
aF-0.1106142020294924
aF-0.07268769877574269
aF0.047361425130875504
aF-0.09743472549796796
aF0.003173675198807455
aF-0.14210348325685923
aF0.16332435237286896
aF0.033752032322423936
aF0.05182123537994696
aF0.018193512958191237
aF0.12128709831153768
aF0.17598543274130707
aF0.18775250263955948
aF-0.013011792882431483
aF0.1870512873286398
aF-0.10053860228951356
aF0.036521181224874646
aF0.08447018666314861
aF-0.09713689466452817
aF-0.06336611876913881
aF-0.14473088480839175
aF-0.11352080622730105
aF0.03279644304482967
aF-0.00587739278251513
aF-0.005457631890802336
aF0.11668612457871193
aF-0.12826327316793426
aF-0.15579178047605394
aF-0.17253330280557086
aF0.1468113414241956
aF-0.03796506919145793
aF0.05054209347991428
aF0.09309342298998721
aF0.12595002524137933
aF0.20066867281724562
aF0.0436576171176799
aF0.09830516319139578
aF0.1916321486447585
aF0.13831299814515377
aF0.039823326650596964
aF0.026037277816243976
aF0.2001066660659041
aF0.04838875562272398
aa(lp270
F-0.13575138312860444
aF-0.1128272076982138
aF0.10522795111931868
aF-0.20208088794034304
aF0.13075039442359088
aF-0.026079680300069463
aF0.154899938720965
aF-0.0030185220588114458
aF-0.04021913003740875
aF-0.18257270583500665
aF0.09213890146253084
aF0.16509284481722772
aF-0.09781572205867617
aF0.08984525266918497
aF-0.1148508418435815
aF0.17054951134028987
aF-0.1098376970405693
aF0.10255420862623381
aF0.15695536571911323
aF0.05678927056909342
aF-0.1405013184952002
aF0.0820226701761376
aF-0.053679302584559774
aF0.035935244228739366
aF0.20882196176449905
aF-0.15917199711147198
aF0.06627690858471975
aF-0.006468841266281576
aF0.042196236688295495
aF0.16542798681827056
aF-0.08129652484852795
aF-0.07181676065808172
aF0.11319180837999664
aF-0.04041561018291667
aF-0.06990969359007654
aF0.10761201790424384
aF0.1162481588316449
aF0.17581041734397693
aF0.03992043082802962
aF0.07064526451468317
aF-0.16082124279648075
aF-0.15452632316746404
aF0.09081293471203743
aF-0.2441654825999657
aF0.10420953808511879
aF-0.021856930664239382
aF-0.11786893757834283
aF-0.02377860810294151
aF0.028638756685622272
aF-0.037563713337468975
aF0.10845008170178924
aF0.023679254493084525
aF0.0679796750518834
aF-0.17223181522942516
aF-0.03050670543036819
aF0.1517014727248139
aF0.05021629868682809
aF0.04072661669086873
aF-0.2066738098510562
aF0.12120790555925302
aF-0.1684335190305787
aF0.1490247260842427
aF0.030366625769829056
aF-0.05830619054419559
aF0.15599316637423996
aF0.1975583796149397
aF0.14963617047151845
aF-0.09071841015402475
aF0.002186480910073626
aF0.11805539429572573
aF0.22249004976316772
aF-0.14517662031956116
aF-0.02351434658954872
aF-0.16499442111341178
aF0.11299123105577215
aF-0.2749673887294422
aF-0.11894065219130472
aF-0.025002131446323954
aF0.1354355702794255
aF0.06299073988627048
aF0.05323641244379011
aF0.027631584495386465
aF0.08757211427093327
aF0.17634967123856124
aF0.11156551042321497
aF0.08856335252431213
aF-0.09728399375001663
aF-0.1346669068698397
aF0.018298805663928205
aF-0.10997369113483964
aF-0.12877824134572452
aF0.05826514772303137
aF0.05381045538692115
aF0.08970380465193722
aF0.2612561908845006
aF0.197820562582141
aF-0.15334506869740777
aF-0.028944948087118394
aF0.08449621662273568
aF-0.08930979341059488
aa(lp271
F0.2423135352980266
aF-0.3594595306614167
aF0.2527847936243564
aF0.2502502456187938
aF-0.24168511116202404
aF0.398952945075339
aF0.014970479096993512
aF-0.3327723444117832
aF-0.05955498729360586
aF-0.1795229710533233
aF-0.011375809659176166
aF0.058018426869354045
aF-0.08793523844677446
aF0.3355439224051229
aF0.25616525869892154
aF-0.35425427608726057
aF0.16696363455278385
aF0.03539931433635376
aF0.07412014023693957
aF0.001573578193346315
aF0.2849552412194903
aF-0.3848115357698656
aF-0.3673004723050578
aF-0.1521265156463018
aF0.3146597683327807
aF-0.2533629784083699
aF-0.28662245553858745
aF0.32663602580767326
aF-0.10398230951178333
aF0.1310061973789408
aF0.12120718071646906
aF0.12294159848932941
aF-0.35100016909645804
aF-0.01938958708342229
aF0.03154477748356162
aF0.23334815293820285
aF0.20393404378450372
aF-0.4077094183067384
aF-0.41925802725485584
aF-0.05962333837430926
aF-0.05778495223050364
aF0.004307740828366486
aF-0.0734924363981158
aF-0.09791099636938747
aF-0.14488549332497597
aF-0.20357548813483106
aF0.3020536663041472
aF0.005737488725270773
aF0.18349624472159348
aF0.130022660060999
aF-0.016463936964774613
aF-0.029639873940492327
aF-0.23713935956469034
aF0.06605962334309058
aF0.2111527279381695
aF-0.13018317650535774
aF0.014099442935321888
aF0.03501656710797204
aF-0.36917525156959696
aF0.12321838543280886
aF0.10447832503652399
aF-0.222213054042829
aF-0.27844384011198936
aF-0.21488219006499787
aF-0.08062672864182105
aF0.06749292084539685
aF0.326047552896004
aF-0.017071122629878963
aF0.27748605785561914
aF0.09080008157839999
aF-0.194621307316337
aF-0.20059266814250926
aF0.06447028731914252
aF-0.20278627587509743
aF-0.14540789503934445
aF0.11080554114653939
aF-0.013344478547893057
aF0.18865414696329916
aF0.12669754773664516
aF-0.22321977127828305
aF0.18060812891996048
aF-0.19804369747679046
aF0.016162026070438196
aF-0.023033312564559538
aF-0.2768948948800331
aF0.1111927905527493
aF0.11866848895391349
aF0.052846628548719216
aF0.002341004711641352
aF-0.09758935682381409
aF0.19336551170480792
aF-0.1557964625174052
aF-0.4331968161984603
aF-0.010216546224430842
aF-0.03292764403289109
aF0.16136049158275703
aF0.30043946519281883
aF-0.17795489091327638
aF0.10437074959734782
aF0.061810879048536625
aa(lp272
F0.06357603362870928
aF-0.11770549625830339
aF0.04708548151377264
aF-0.1771885463054176
aF-0.168927453088616
aF0.3544250960387833
aF-0.1912076414292769
aF-0.016167064534214542
aF0.32314844633795486
aF0.20435081153890639
aF-0.12157976731254254
aF0.018216473958273405
aF0.2069909008159312
aF0.13830103426839208
aF0.38593040210592694
aF-0.04344960491011527
aF0.031555006511110394
aF0.4351853351833967
aF0.2551442614346966
aF-0.03681001206576449
aF0.03167994905529604
aF-0.018750212272696912
aF0.015445625062209136
aF-0.13495596671366805
aF-0.252471932830475
aF-0.11341454340627276
aF0.01699161845455267
aF0.223452875310968
aF0.0883969526918878
aF0.21304717527694197
aF0.027195577048602176
aF-0.20337105146799012
aF0.13177720979350616
aF-0.11449652780498934
aF0.05883011674444046
aF0.029456540106569513
aF0.029519150076851117
aF0.0680127778492329
aF-0.11698451578340796
aF-0.23778212930427403
aF-0.0550375166739655
aF-0.24426025227838133
aF-0.35123856036716367
aF-0.1760541143262824
aF-0.19046072937326108
aF0.617960412675899
aF0.07617690715269931
aF-0.04158791360968309
aF0.35283964338034157
aF0.005674647063695256
aF0.09049086778389834
aF-0.0815231150675818
aF-0.27455004681698186
aF-0.031796927117200065
aF-0.029872386722293698
aF0.055990832147638975
aF0.013054578825589615
aF-0.27232845077193435
aF-0.03913972941923037
aF-0.3287824368494662
aF-0.10120860159769128
aF-0.2027046799811896
aF-0.17250615350574466
aF-0.4539408075961882
aF0.49639347114667537
aF0.3168344532727721
aF-0.06466663627136585
aF0.2813672802687637
aF0.5614183290021831
aF-0.17507812927972805
aF0.06454082044814208
aF-0.4116966889748668
aF0.336930652102071
aF-0.2973282569510478
aF-0.2266696373864388
aF-0.256972646668065
aF0.00460899344564671
aF0.2711524251528268
aF-0.2329883859555928
aF-0.12035092110049389
aF0.16607044709026067
aF-0.4485271705682702
aF-0.15669027728343354
aF0.4602348672456067
aF0.08469891562342366
aF-0.5729577392633264
aF0.3836073369561494
aF-0.539400611600825
aF-0.27076531468571063
aF-0.2354440894364509
aF0.06384813272037915
aF0.21179756197675953
aF-0.4484772178165349
aF0.0834579430124692
aF-0.07404889678164109
aF0.19591336339119514
aF-0.36124424130949245
aF-0.1567475460912607
aF-0.35215189376772366
aF-0.08624866415561219
aa(lp273
F-0.26664943177371225
aF0.11593298569426944
aF0.005292043477829118
aF-0.1780106847892899
aF-0.06467717796209381
aF-0.0029754725048645493
aF-0.188245688614913
aF-0.33574329236255046
aF0.4954651494455805
aF-0.07769483475889978
aF-0.29518431039531495
aF-0.0944558379805769
aF0.03129246287813518
aF0.052626259665641266
aF0.23287137800758592
aF-0.11049288821707312
aF-0.36775966102290863
aF0.043714400949510734
aF0.02107770823202764
aF0.2960902721141174
aF0.1345966409224777
aF-0.3051524415735844
aF-0.2258107897917924
aF0.2087670151383643
aF-0.020981190951055793
aF-0.2868017480509617
aF-0.09673252488019651
aF0.25304299166290756
aF-0.029219366785030215
aF0.22867050959394092
aF-0.5992131482274374
aF-0.1438843883257868
aF-0.10485305881457675
aF-0.043491515753774995
aF0.24428414501286386
aF0.1803761679897921
aF0.4344556483364319
aF0.21802577066522275
aF0.27911260331640925
aF-0.41893597262354976
aF-0.3299212089931375
aF0.35052663148277163
aF-0.049633569708608806
aF0.24594978976866716
aF-0.19126637416484402
aF-0.1741706979424469
aF0.143049086429989
aF-0.266783209339083
aF-0.34617776447022774
aF-0.43135974304853136
aF0.12511320087449385
aF-0.07936656828160073
aF-0.2023303694159139
aF0.09690279233935882
aF0.125547175983342
aF0.22568808336790017
aF0.012391811624419284
aF0.14652221178705216
aF-0.05322517223658281
aF-0.4972354165037306
aF0.30395308455744646
aF0.33535451443222775
aF-0.119401492357608
aF-0.4156696973627828
aF0.2352518994608322
aF-0.09883972241172453
aF-0.23031774461044904
aF0.27133158076208713
aF-0.21241336818840265
aF0.17756940410040473
aF0.1388934035573598
aF-0.45696895750703054
aF0.3739662606930716
aF0.16737570226074316
aF0.15592131899927672
aF-0.3421605157904401
aF0.6573882823908149
aF0.0374318124609453
aF-0.20809933423434673
aF-0.18138467192897045
aF-0.007103413980775768
aF0.24388851037103126
aF0.10097443367595782
aF0.13323691396597062
aF0.4887432051392365
aF-0.07373804969873782
aF-0.20440797709362712
aF0.04347594194432727
aF-0.3428111517501477
aF-0.14660995904428
aF-0.021458038945970544
aF0.13328092180414855
aF0.0349602219588557
aF0.15523884903854812
aF-0.05372244708829384
aF0.048333012913861204
aF-0.2805352694992244
aF-0.17308956209774173
aF0.07155191154104268
aF-0.6788666040768871
aa(lp274
F0.5025105744607953
aF-0.3890868094003478
aF0.18545991884476823
aF0.05452913208143475
aF0.10713309074475365
aF0.24997538445149337
aF0.13217333446101395
aF-0.17514943318929052
aF0.32046006940519445
aF-0.07480704151886047
aF-0.19328264707623272
aF0.045798371489128284
aF0.2587968958785808
aF0.17728258070713893
aF0.5703998908820835
aF-0.27333707257624273
aF0.0390761037149619
aF0.21245542844370757
aF0.29130519778576663
aF0.5505298752285565
aF0.3140507385876424
aF-0.3274046810058766
aF-0.03206007667046195
aF-0.18066899631214212
aF0.003058922739529183
aF-0.4010759681675034
aF-0.5902954982478513
aF-0.06415154695881034
aF-0.457766683255385
aF0.23248166906561912
aF-0.01904148676918985
aF-0.12226040547339172
aF-0.49691072009222886
aF-0.21770855411876408
aF0.45884256530005174
aF0.039060763972304256
aF0.42361057175649863
aF-0.31795945480177146
aF-0.21540526702198426
aF-0.2628074537114661
aF-0.1770722300232631
aF0.0992297084579845
aF0.18844314965922757
aF0.3753465688773663
aF-0.34672424037998845
aF-0.046659729174108176
aF0.16833236341269597
aF0.04527787204643137
aF0.0035945595193101936
aF-0.22613331191285974
aF0.2546816631125051
aF-0.18958773789348649
aF-0.27395010476960807
aF0.09604813163193736
aF0.4498842701359842
aF-0.13793232989791965
aF0.11897478544168501
aF0.2535350988758274
aF-0.25129730592078203
aF0.04499268627257371
aF0.11799243021109175
aF0.08711984043904751
aF0.09286460575583838
aF-0.10541439520995972
aF-0.21967478334211432
aF-0.36720891928134414
aF0.4754552736401675
aF-0.05798708038874415
aF0.33531416684944776
aF0.33190671165857066
aF-0.08971507139102722
aF-0.28229029398779304
aF0.138011385720109
aF-0.07278547782473273
aF-0.07253976781626846
aF0.20576639932254973
aF0.4592026409609216
aF-0.12377527185937406
aF0.0955239744508253
aF-0.017412147491944457
aF0.3048991426285614
aF0.17030633178810337
aF0.3915013936070526
aF0.049859328465014785
aF0.23832915833622165
aF0.2769382464581648
aF-0.01603117459285777
aF0.043689543012587206
aF-0.2938381662501683
aF-0.1144415164304546
aF0.03273223664958774
aF-0.32897650196583367
aF-0.45259412891216017
aF0.04292518895545095
aF-0.3176065722114082
aF-0.038784937074980194
aF-0.02516600578700289
aF0.014255871711907838
aF-0.0839309107227855
aF-0.2493526621906919
aa(lp275
F0.4239970212538729
aF-0.33391193421340354
aF0.21079156865277857
aF0.12797857899606413
aF0.20142913512977279
aF0.40891694861974176
aF0.02211222548940785
aF0.03176435649093625
aF0.029793848292225547
aF-0.05506889336233382
aF-0.14432559053992486
aF-0.10187197558227182
aF0.002526205242355415
aF0.23662428522413598
aF0.381018330381515
aF-0.2871597535475276
aF0.44046446505153425
aF0.22033986097850902
aF0.3299510297976036
aF0.21931713180348603
aF0.07244327911098852
aF0.0526824240526923
aF-0.03774091997583238
aF0.23804920591235043
aF0.21725171762794965
aF-0.13176180421792863
aF-0.28333641202174864
aF-0.009823198884612118
aF-0.30564071482974337
aF0.10867905542352409
aF0.3000049877779623
aF-0.29550574061584
aF-0.009156819429999491
aF-0.04449437923129182
aF0.471939098106527
aF-0.01889901341487171
aF0.12478915182039789
aF-0.1992168805572992
aF-0.1133225620250295
aF0.04861807258916178
aF0.03296635062485922
aF-0.44323162182447623
aF-0.1453509218416678
aF0.3010663794516413
aF-0.10216121185192174
aF0.020595148381466435
aF0.12273570779007467
aF0.037711285800971064
aF-0.2414434438597912
aF0.2796503534173134
aF-0.18075447902108366
aF0.008726808392891586
aF-0.18998510165209334
aF0.06729933532651046
aF-0.19839903121870514
aF0.09437962238857359
aF-0.14283718004568183
aF-0.1641562451068556
aF0.1825083875140385
aF0.15912093434604482
aF-0.23236010630663795
aF-0.23003049820502294
aF0.31779721927948706
aF-0.1839155123823577
aF-0.000574692233124017
aF-0.16005299614848492
aF-0.0025425853611124732
aF-0.05703001216582114
aF0.28572664174512274
aF-0.03322636779213371
aF0.39260773834722795
aF-0.08659444009896568
aF-0.033325468314997934
aF-0.000271988652228105
aF-0.18208207852754282
aF0.06574353037619375
aF0.034685431073182844
aF-0.2188351612544959
aF-0.07009881187122691
aF0.19310232627622936
aF0.09312543286261352
aF0.1337148499874889
aF0.2920336433890409
aF0.00026872147656409784
aF-0.22244022109644168
aF0.11840062735053437
aF0.19770785373389757
aF0.12686189940293102
aF-0.004597015362320802
aF-0.28401864748649536
aF-0.12021172758075276
aF-0.3093452176465066
aF-0.34241955104570665
aF-0.047994977616374376
aF-0.11477497065362599
aF-0.11670379592086662
aF-0.23786078840070726
aF-0.29046002600592297
aF-0.28526493525364127
aF0.14042318147791283
aa(lp276
F0.08978840389651169
aF0.18832801665872578
aF0.014334674811010297
aF0.1220337193788537
aF-0.04462906085067167
aF-0.1635073134207101
aF-0.23284017365970708
aF0.10305702690451578
aF-0.06606858481515578
aF-0.17914395962340557
aF0.06244950026001051
aF0.1580627354218684
aF0.08323126613332654
aF-0.02422339557511843
aF-0.06193883500528631
aF0.24140299109404526
aF-0.12755933802675742
aF0.006032183947936457
aF0.03015267373077635
aF0.2240648191006202
aF-0.22609650212170382
aF0.03944437072299665
aF-0.04321746272898993
aF0.1875728939366055
aF-0.013282253186366848
aF-0.07832852781525199
aF-0.0030177261283530284
aF0.08943055562305577
aF-0.19721075102210955
aF0.1422262415382373
aF-0.14012635621585762
aF-0.006546063600988127
aF0.18593380438430598
aF-0.06383774628140816
aF0.08730083617592979
aF0.0707116976376082
aF0.19115086854131222
aF-0.035989306249697525
aF0.21654319138889497
aF0.004706793161173684
aF0.019307177661232435
aF0.1780215640973662
aF-0.19765042711670902
aF0.008341126471815662
aF-0.12814038355058002
aF-0.10867990769493756
aF-0.08779952664843207
aF-0.11766003638429662
aF-0.008911563959634232
aF-0.0572983245918656
aF-0.06318093365685297
aF-0.21014109782316787
aF-0.01349024422146435
aF-0.12189146641341769
aF-0.16447422431720354
aF-0.14826988388892703
aF-0.16339854930350362
aF-0.17541319299053054
aF0.0012190527512573933
aF-0.1446751414241641
aF0.00728225987048708
aF0.0024773042889119712
aF-0.01707805717406533
aF0.15090847288198725
aF-0.03846953458140214
aF-0.14041706211318533
aF0.04297784311965387
aF0.12418670580321908
aF-0.05109996150906171
aF-0.2296952463000065
aF-0.1256855331483038
aF0.0631258020390909
aF0.20228404270263228
aF0.18418872296228023
aF0.12307639832737248
aF0.1677254983764253
aF0.11973284656312545
aF-0.02345910940405505
aF0.1399700669887949
aF0.09166435372055004
aF-0.11807953526573321
aF0.05207557045067599
aF0.1635463963038985
aF0.053806918165201896
aF-0.09810423794705175
aF-0.10753984215891252
aF-0.09455593724825777
aF-0.06623867854610721
aF0.1883348550750409
aF0.04447989037845769
aF-0.13844816835582743
aF-0.10330551744925158
aF0.21547233672886082
aF0.11022945113404498
aF-0.0786317281294765
aF0.12441925635193005
aF-0.026571350239126382
aF0.1647355642222424
aF0.10949322893511723
aF-0.029675258347041027
aa(lp277
F-0.18811337796975738
aF-0.06151021220168046
aF-0.16336574425688732
aF-0.03270209147448028
aF0.1168857666697527
aF0.10538140417411235
aF-0.1353428808912124
aF0.1545344545696236
aF0.10086121301249568
aF-0.12419927645582339
aF-0.04477699722242057
aF0.10477149786173529
aF0.19830249425577573
aF-0.19312325554996887
aF-0.1517302662773272
aF0.09488645988274164
aF0.10877191903738487
aF0.10332078805450623
aF0.0342544197624334
aF-0.07001844527936371
aF0.10463178530190054
aF0.12165893698045588
aF0.05088391570311657
aF0.09704537512054234
aF0.13053126971673046
aF-0.07298198006002551
aF0.1569402718175203
aF0.12694652877891782
aF-0.1516978758385309
aF-0.06760720246051025
aF0.10172846412051068
aF-0.11396978310624761
aF-0.07642266636229747
aF-0.15034937764934267
aF0.19507537294944033
aF-0.07383798064137032
aF0.08050337485442566
aF-0.181073772703751
aF0.02043659385131441
aF-0.0036581965080397794
aF0.0694234652977811
aF0.0560546053918653
aF0.025341047849644832
aF0.13390676218771774
aF-0.08185431128429324
aF-0.03219784509746196
aF0.11656559927494586
aF0.14350306944415725
aF-0.12277211302021791
aF-0.1016870835268374
aF-0.19546222948202177
aF-0.18157361414734383
aF0.01958358419055814
aF-0.16322847129338644
aF-0.1763297449329871
aF-0.09416565451625498
aF0.018357505532128504
aF-0.1541328660517055
aF-0.04883547551813433
aF-0.14674409178501424
aF0.16098791445015947
aF-0.022705991058576597
aF0.17321167939819254
aF0.08819117655754016
aF-0.14752140645694023
aF0.055080191169274484
aF0.07261710039950503
aF0.13701376143785232
aF-0.14011144078454663
aF0.17139777429985226
aF-0.10139364515446309
aF-0.16496611642622794
aF-0.051133118810107625
aF0.018150660677686087
aF-0.027985176250562904
aF-0.11951024010778317
aF0.04017158137533877
aF-0.18840084601967716
aF0.01904123237168584
aF0.001195960544525393
aF0.15286481651502848
aF-0.015726117121319882
aF-0.10896456096618429
aF-0.10602717219420153
aF-0.07395841908386999
aF0.06683195754894555
aF0.03683071645603181
aF0.19098726028689378
aF-0.0769496178055431
aF0.0280864622034811
aF0.10247100055596237
aF0.16183394532888795
aF0.10245096757943445
aF-0.05308173345497305
aF-0.06954127704212426
aF-0.14653187075006172
aF0.1730302266696373
aF-0.16912744325641113
aF-0.1838142558711028
aF0.10501273009701789
aa(lp278
F0.04956783964457975
aF-0.19290388735019082
aF0.044614494651216675
aF0.20496706916737342
aF0.01833718041097978
aF-0.09975849548668522
aF-0.0020330575962890624
aF-0.02984256069309281
aF0.2011024598893639
aF0.15502588363344014
aF0.11426884280485478
aF-0.04537609882147549
aF0.06065852956150449
aF-0.07127113531579761
aF-0.02888070121262317
aF0.16167702931020914
aF-0.09453319020394463
aF0.08340012752863687
aF0.021494229290667594
aF-0.1253285228769532
aF0.11674236066520312
aF0.029665760548750756
aF-0.020547788965055463
aF-0.06848688255730734
aF0.05192185152442801
aF0.004743513629607698
aF-0.033969254054723105
aF-0.018257656815603363
aF0.10078404933427187
aF0.12212489193079634
aF0.05245795669322173
aF0.09373439885993522
aF0.11599126099863483
aF-0.04597178160751479
aF0.007312839963180603
aF0.2204072196643427
aF0.20301313024500725
aF-0.03338449826074998
aF0.10519860125123379
aF0.03736823900979511
aF0.1200995821567704
aF0.1534097927215089
aF-0.058356784573745525
aF-0.1033324393844286
aF-0.1793133730512653
aF-0.16315422051225983
aF-0.160725024370811
aF0.183285315632076
aF-0.15179343303494658
aF0.05274255997137389
aF-0.07221627349214851
aF-0.010268180830300393
aF0.018755446129958775
aF-0.03007366564534285
aF0.1468129192952949
aF0.20123316739104055
aF0.18799899166183426
aF0.06569400413692256
aF-0.08772367328765754
aF0.1741251795946302
aF0.13435695929928043
aF-0.09029822426403408
aF-0.1382815689988794
aF-0.0911294772797454
aF-0.17519938868502372
aF0.06873738194092359
aF-0.15334654462174255
aF0.22616351085339584
aF0.1328163064650954
aF-0.1157732064274683
aF0.1088314738803312
aF-0.15279498373903475
aF-0.022686177549262918
aF-0.12377336065152256
aF0.08625969196402176
aF-0.1574447354681042
aF0.008176725262370597
aF-0.11905807251682109
aF-0.1580243378468157
aF0.16396049532083076
aF-0.040969709706665455
aF0.016705445483540072
aF-0.10352197583497909
aF0.012339275433109887
aF-0.09600746990148736
aF-0.018022131603595472
aF-0.0021716137469042465
aF0.12501535253069135
aF-0.17183972350258553
aF-0.03313431257290091
aF0.15617109099613205
aF-0.1485552648193942
aF0.08650653581223296
aF-0.18047806903167365
aF0.1604513895842088
aF0.1616553221754773
aF0.07470669405919919
aF0.06030850838390184
aF-0.005594759018822664
aF0.12729193208765346
aa(lp279
F-0.15940091415023
aF0.1707097073510574
aF0.039666243217260734
aF-0.08154264756832234
aF0.3847512803158149
aF-0.10930931633447669
aF-0.1955660862903219
aF-0.2171629096930289
aF0.2120251847083556
aF-0.21954519302170322
aF-0.08146536296537096
aF0.33870288511934726
aF-0.045739958871455634
aF-0.47589501399453615
aF-0.052588249967286615
aF-0.0972839210442872
aF0.055870379979978076
aF-0.14439930377624755
aF-0.022679383028543987
aF-0.3415275011951527
aF0.23843561582096826
aF0.27275568799699507
aF0.11778517306989433
aF-0.09627172285506126
aF0.17045519907371656
aF-0.14764747095020767
aF-0.005628308083138046
aF0.2177650899899414
aF0.3835708309141491
aF-0.369368554469797
aF-0.0972136692011509
aF-0.5733188942358921
aF-0.050663067091195176
aF-0.039529399504582466
aF0.1914690209491078
aF0.3466843394206278
aF-0.09532982006840954
aF0.27833124486530203
aF0.12815367231518784
aF0.21648320583544778
aF0.10663327672222386
aF0.01893657474969997
aF0.004580274503852751
aF0.27366009077681475
aF-0.15262121748161017
aF0.15857857882476525
aF0.24652383060480065
aF0.32026204016256066
aF-0.00789150386334859
aF0.035344967474174344
aF0.025459410417205862
aF-0.00911730535485202
aF0.12700131305944637
aF0.13529808717821765
aF0.10500776749173847
aF0.1540280051602392
aF-0.03059896040281812
aF-0.3390695091913545
aF-0.5982274770618579
aF0.27060887110349463
aF0.02016480039356981
aF-0.08353805655171084
aF0.0522274029074478
aF-0.14688104351956643
aF0.16476411780025765
aF0.35276836793437694
aF0.368137685782841
aF0.4234152222388457
aF-0.1352334304236445
aF1.8074270380501493e-05
aF0.20223051668452294
aF-0.1089065089741157
aF-0.2815748345186685
aF-0.031393092098320245
aF-0.28603229936047336
aF-0.4909757659368275
aF0.18455393585873106
aF-0.016345451834430456
aF-0.3827218633246051
aF0.11892098612117705
aF-0.023390409176641133
aF0.14454144895043508
aF0.3066611045902707
aF0.17436308601310951
aF0.3280262977558636
aF-0.21214165662794138
aF0.17812252084113944
aF0.10828108906310759
aF0.20719793377817033
aF0.25356223935329203
aF0.404948891652622
aF0.2726085937081179
aF-0.010376222712267324
aF-0.15264515208393267
aF-0.26059217710243854
aF0.15179205500742105
aF0.1642129178967298
aF0.04187613551657641
aF-0.45103490873989766
aF0.2537494689421311
aa(lp280
F0.08814046199444242
aF0.1538349079859563
aF-0.04935961922345522
aF-0.15021751160903948
aF0.2953104348988325
aF-0.12700829354076287
aF-0.2340507968370982
aF0.04363184771419051
aF0.004836148681390332
aF-0.03166505572462485
aF0.0793646918415073
aF-0.14094665606304063
aF0.038176399882154446
aF-0.03880650924678981
aF-0.0028346411891383145
aF-0.1341263741839934
aF-0.1306946527085665
aF-0.3302654100695464
aF-0.08184736578787744
aF0.1434641696158292
aF0.08534261893580349
aF0.08698661665557107
aF0.09759841013129865
aF-0.17489829163112852
aF-0.02712244859850496
aF0.020168994504935846
aF-0.35321087669538714
aF0.04118224312691667
aF-0.11568008057434087
aF-0.1386592949612654
aF-0.0324619127398051
aF-0.039275592010763714
aF-0.014611480435628772
aF-0.10910514266225124
aF0.1311849405831603
aF0.013773193766890861
aF0.20971883073567524
aF-0.21870421421659733
aF-0.012498495487471067
aF-0.1616976256266702
aF-0.04102052568950162
aF0.05327821711301599
aF-0.060664283760846656
aF0.3155151386658977
aF-0.10513850971564126
aF-0.019525840284173503
aF-0.05626478127384724
aF-0.008863487396540904
aF-0.2740603205828365
aF-0.1941726849484583
aF0.017319738162390044
aF0.19125308144646624
aF0.05220830834173595
aF0.016373462551583336
aF0.18112015101513518
aF0.08982348062078051
aF0.09294520897382406
aF0.08036774495265102
aF-0.34534232797250697
aF0.12691553065826292
aF-0.05072561772934008
aF-0.06468204575283497
aF0.03460271042375643
aF-0.19025835990021808
aF-0.13371121505538341
aF0.024054227162371673
aF0.15687867329546715
aF0.18557043140441534
aF-0.11852215090741279
aF-0.120536229157511
aF-0.24990633938470272
aF-0.02524868687429038
aF-0.24082253522318933
aF0.11353331345480583
aF-0.22368230391227403
aF-0.20466852203232277
aF0.09072143946436574
aF-0.029299497013373418
aF-0.25169054976916355
aF0.09185250385938033
aF-0.1775552106733847
aF-0.11913275718551775
aF0.21651622155446645
aF-0.14328661622991187
aF0.001844404726636254
aF-0.0012159656131621214
aF-0.19841162997965825
aF0.047045236708949494
aF0.005331783902845855
aF-0.1206209459892915
aF0.2857302637135656
aF-0.081355446127343
aF0.10032795534753843
aF0.11219471932858076
aF-0.16751444539755264
aF0.11205908075560404
aF0.37276023281656334
aF-0.031834218502605385
aF-0.1135873893135954
aF0.06377892969832967
aa(lp281
F0.2631997557732459
aF-0.24022263193586532
aF-0.10407405283251826
aF-0.15612149417535232
aF0.028702647145331144
aF0.2428929036853571
aF-0.3464873130413465
aF0.10846400243286534
aF-0.3166370713510978
aF-0.22257731880606638
aF-0.24221517068276233
aF-0.004977999306453526
aF-0.059208602495821015
aF0.04919781569007908
aF-0.056174780648396164
aF-0.3950599412910861
aF0.2361955000636509
aF0.017368977607439336
aF0.07208375693603056
aF0.5675767919372849
aF-0.14670251133748835
aF-0.3838870804797695
aF-0.17072517659851927
aF0.16989339835410708
aF0.08576191016128361
aF-0.2393634942184069
aF-0.4188084371240132
aF-0.052048253813286205
aF-0.3561200543287712
aF0.14547562043359685
aF-0.1309965563247883
aF0.08942814776706916
aF-0.12926795076278988
aF-0.003238960662336758
aF0.3389749003377572
aF0.07617577285285022
aF0.3953004244714443
aF-0.18911047120383215
aF0.3144068638278408
aF-0.266936344313726
aF-0.30455850484450303
aF0.1705073333667784
aF0.15578225223166928
aF0.2684923355092337
aF-0.49549921176256145
aF-0.3562508070238418
aF0.14929609692892892
aF-0.22723162502217822
aF-0.42534393521336716
aF-0.18984187170698644
aF-0.15580247509534487
aF-0.2768794536292857
aF-0.08864270197566296
aF0.15756171017810505
aF0.29456682299054343
aF-0.00685735994916087
aF-0.0606176954107473
aF0.12855021496118604
aF0.3703096460443275
aF0.16476475729637774
aF0.004556302311843604
aF0.14934661163893068
aF0.11849421837395625
aF0.038436046923676706
aF0.022121029325379803
aF-0.5175422626306619
aF0.223248659870354
aF-0.1493524325567224
aF-0.02917367293446877
aF-0.009531884637635725
aF-0.1325850235898368
aF0.08606608243400725
aF-0.15806646527634283
aF0.17341321961709796
aF0.054397197492215964
aF0.09263661747954569
aF0.11469085638508107
aF0.04041790735961705
aF0.29099974528706385
aF-0.15863306684916745
aF-0.06376828424775183
aF0.30750085643290487
aF0.026760027238753845
aF-0.29568012216739636
aF0.11531578471152229
aF0.2621623301351369
aF0.03447738128458041
aF0.4231603345597051
aF0.035472709628216574
aF-0.004370219789535142
aF0.12017214880888612
aF0.10876512823928192
aF0.2180766435312396
aF0.2529875513261518
aF-0.0028214357704080765
aF0.05006066433470916
aF-0.0828165846184065
aF0.07925254956757538
aF0.06170704018017718
aF-0.3698161557902899
aa(lp282
F0.3544011728875819
aF-0.32656171699810516
aF0.20771964840633744
aF0.22753796732337075
aF-0.07485592490622596
aF0.30466808962387565
aF-0.1505229140070273
aF0.00776357487510092
aF0.0445103362262298
aF-0.06992623778513878
aF0.02712331410510056
aF-0.026507861569470548
aF0.4368206771407772
aF0.05452714463060106
aF0.4542884312294689
aF-0.4264636096680415
aF0.21595939666097055
aF0.3557653965079757
aF0.3360605806360291
aF0.562628100548211
aF0.15767529162006017
aF-0.2514231308041259
aF-0.11006586618700967
aF0.21163000066612983
aF-0.2586491050225861
aF-0.2533407369044689
aF-0.6162079831339872
aF-0.11167892783954418
aF-0.49910073358932633
aF0.0917454751462316
aF0.1705359369607617
aF-0.0009404602362918092
aF0.11295620571421747
aF0.09736354069056456
aF0.45454814799015997
aF0.10595858753941366
aF0.43178894530565926
aF0.07819874313256331
aF0.39579603089251986
aF-0.2268274214925668
aF-0.26069954322370453
aF-0.26760102524922313
aF-0.23744135126022106
aF0.33542055768913537
aF-0.30791594876894673
aF0.3992004028076293
aF0.033590489597403565
aF-0.41660233416237336
aF-0.04703402245809755
aF-0.07208149650980278
aF-0.12947768944778176
aF-0.5812490882322606
aF-0.1890756950849389
aF0.0647621156810348
aF-0.09520240313811644
aF0.12414069046850641
aF-0.0387925525146983
aF0.037176877429824035
aF0.2955422434140347
aF-0.22862601756185189
aF-0.2915315769032086
aF-0.4376940711911209
aF0.23392744252454986
aF-0.3133185477405212
aF0.1880844943706806
aF-0.2588396857740325
aF-0.01758370601263298
aF-0.2636161344785938
aF0.6240345861491534
aF-0.3637464177579325
aF0.530997066178017
aF-0.2523571737344627
aF0.20941644827944278
aF-0.25419730061221
aF-0.4108590495811289
aF0.33366178798332824
aF0.4955371641955937
aF-0.16103443680087756
aF0.1321177905934326
aF0.1417825207260766
aF0.012089473362947172
aF-0.014999613994992384
aF0.014457066632642745
aF0.05278398032587922
aF0.0009027754748934095
aF-0.14341091849875404
aF0.06342348066393952
aF-0.16806890988294093
aF-0.137299396282082
aF-0.3148689299909796
aF0.03627422625076361
aF-0.2768533385187539
aF-0.05898066732214277
aF0.25717711448599856
aF0.036796626533002495
aF0.3274111686764985
aF-0.03933698478648524
aF-0.02190352585234048
aF-0.12430236331278761
aF-0.1826894709252194
aa(lp283
F-0.1896192144373029
aF-0.2672937976712683
aF0.11685173730065657
aF-0.1725390070330613
aF-0.08626169234318033
aF0.16782714719650915
aF-0.13684652499591116
aF0.19768579380031687
aF0.038021322914504836
aF-0.025494527981871597
aF-0.29671745328796845
aF0.10049228157418336
aF0.296300101749605
aF-0.12976650980505597
aF-0.0986646550083781
aF-0.26496132953155505
aF0.27468560104509127
aF0.13047021724768593
aF0.17309446436960996
aF0.14590142723712077
aF0.2747843681037755
aF-0.2428276200540015
aF-0.09763247703754302
aF0.24113028395440705
aF0.01042049538748336
aF-0.053832758948232376
aF-0.4356389740260222
aF-0.02102227995861535
aF-0.15819830642842542
aF-0.03923993223250821
aF-0.07492699714117139
aF0.0025105134195885508
aF0.29881489688135215
aF0.06222737994179417
aF0.32269384814785806
aF-0.1271830418807094
aF0.06434642064468037
aF0.16822135499206886
aF0.2890054954636769
aF-0.15454706504375687
aF-0.2667784472259038
aF-0.10715256608658565
aF0.007655278811433979
aF0.10179996382573095
aF-0.17846700652645717
aF0.23944072934418545
aF0.2661414004883461
aF-0.2919970571500446
aF-0.20819685221775733
aF0.13426428109282368
aF0.13789963256494736
aF-0.24635038804995626
aF-0.01159741920480206
aF-0.07429869390097134
aF-0.1183573723167305
aF-0.03283412303249674
aF0.0055025528544947015
aF-0.3714333511834387
aF0.2542560261349963
aF-0.12496988621152365
aF-0.3857433547882539
aF-0.36204428629330254
aF0.23942819464265316
aF-0.2581138200009008
aF0.218721724091356
aF0.02432920999171408
aF0.06315818508566122
aF0.11948284269612684
aF0.4651030622872093
aF-0.34142508598536137
aF0.2872348993052211
aF-0.4515325113138034
aF0.31906114720599826
aF-0.18033651427178826
aF0.016802836848217196
aF0.18409900474630622
aF0.39060943566221984
aF0.15471495179297715
aF-0.15111848990249035
aF-0.24710456216123786
aF-0.007863936400072713
aF0.010906153578770906
aF-0.012971497666414993
aF0.1763612102833254
aF0.19867646661000718
aF-0.26658021178181307
aF0.2385810476015895
aF-0.1872314459239715
aF0.06418612982661623
aF-0.05749194849194182
aF0.3515284285907982
aF0.2467941963565282
aF-0.01765414667556966
aF0.39427417317721936
aF0.2597847948485523
aF0.28050860935426203
aF-0.11052303123203712
aF-0.0735425059879122
aF-0.17984055564621015
aF-0.3975390565021372
aa(lp284
F-0.024589110582353066
aF0.01231034631591469
aF-0.16467907126534664
aF0.16716773171655316
aF-0.18728500253832994
aF-0.09347015724059932
aF0.0951621636166612
aF0.14405683301571395
aF-0.047348240843283394
aF0.20760588764135088
aF-0.20938413853756455
aF-0.06980232865375668
aF0.29423116001904165
aF-0.033132922216073044
aF0.106120696730522
aF0.10523541759889296
aF-0.17435547607109814
aF-0.026587689177063483
aF0.0021173504180315808
aF0.11196058949151733
aF-0.18278545142106029
aF-0.07449411380557466
aF-0.10147907641382073
aF0.04147242336216635
aF-0.012632955811979561
aF0.010292276181773788
aF-0.1025505225198966
aF-0.13892955944308757
aF0.19087313564708902
aF0.09348407864484261
aF-0.1488621807834997
aF0.15653486994252383
aF-0.002867161129147411
aF0.1676724382428541
aF0.19744343544019116
aF0.07237985223109492
aF-0.061642773262485163
aF-0.12038547946357202
aF0.12664634606725186
aF-0.11128244936032543
aF-0.22307860968544257
aF0.17790074006785478
aF-0.1698453606764141
aF-0.004610403077191728
aF0.007383483785377806
aF-0.06919325078325284
aF-0.023177151832993455
aF-0.20485790042017782
aF-0.027358057214457387
aF-0.0949386438652869
aF-0.004908257502973386
aF-0.2723205336347453
aF0.1342413136699712
aF0.10023411935701386
aF-0.023055913966918765
aF-0.13010338130419336
aF-0.0945758871357634
aF-0.03895828319006434
aF0.21275811135708864
aF-0.37082384556159365
aF-0.20728805851753332
aF-0.2393230124490525
aF-0.014334500124368734
aF-0.18756196715994786
aF0.2111440791728614
aF0.03813065625773296
aF-0.19717812022773099
aF-0.18532101733289788
aF-0.09656597970720787
aF-0.006656420609948551
aF-0.07493623290061624
aF0.10246164876073313
aF0.26006607373713003
aF-0.016271876841110446
aF-0.011274606468756878
aF0.003226518963590383
aF0.16965173354514865
aF0.09572333653154577
aF-0.08834036550942123
aF-0.08946896833839328
aF-0.2874092075461921
aF-0.06403507160734913
aF0.007935251247192288
aF0.12593207464676334
aF-0.10759193933503665
aF-0.07846169405663202
aF0.141926851072239
aF-0.010321391961785279
aF-0.15919642109579776
aF0.19091376980234526
aF0.024426826259008515
aF0.039504500796290254
aF0.22038094134309766
aF-0.048277261159229305
aF0.1267020821131105
aF0.10831033153991164
aF-0.17326155563251658
aF-0.07573121268992798
aF-0.03416138429601918
aF-0.19253444281559362
aasg9
(lp285
I1
aF0.44526406484115366
aF0.36872933533983915
aF0.4954616217969839
aF0.683344915061503
aF0.3220344055976667
aF0.13585262362347092
aF0.26188764463091807
aF0.2812093924032617
aF0.5000225909067163
aF0.5249685528397308
aF0.47772125738954296
aF0.6870783108342714
aF0.4672399661908047
aF0.15785804934793285
aF0.4184171942306433
aF0.8505866722951627
aF0.2784153554001858
aF0.3562440413682669
aF0.43806261004592983
aF0.4234459013135031
aF0.43450808024602117
aF0.3276143952503212
aF0.3922130186199788
aF0.2055776587800984
aF0.42448047438804914
aF0.27412470301189035
aF0.09047562468057586
aF0.6904655253362252
aF0.41347404448064407
aF0.45380798212687823
aF0.255542479426764
aF0.33299243983719695
aF0.37446382430327213
aF0.5005831860029166
aF0.5056433197006817
aF0.9100898256980277
aF0.5549470537069546
aF0.7079320536874182
aF0.7711292168108639
aF0.4848067442050439
aF0.36456008525889777
aF0.7233604173305115
aF0.6900305891825267
aF0.3614431285127381
aF0.3274254200962799
aF0.7517364488229731
aF0.38985717602534153
aF0.49230138391071265
aF0.16844408767913524
aF0.48577573065845636
aF0.24580740291652628
aF0.44637865131026117
aF0.31689126810095036
aF0.6843330822900998
aF0.8056132656278824
aF0.47066136313223017
aF0.4137997621681539
aF0.2724975573823818
aF0.1097541640934392
aF0.7233261057924468
aF0.5264885709773731
aF0.23493506331298794
aF0.25937552453354545
aF0.5375181754026351
aF0.5097267294592179
aF0.7952672338122742
aF0.6803160860782336
aF0.6454187675709006
aF0.5031126710625274
aF0.32664886695126005
aF0.5194378875672958
aF0.6009962481627429
aF0.17450413730310924
aF0.28833748283833227
aF0.29281740792651884
aF0.19917482770975645
aF0.851460399056867
aF0.8129613184108438
aF0.29487187530561754
aF0.29213539989840137
aF0.21828004530244788
aF0.19611641289181708
aF0.7471551982720432
aF0.31854701729107565
aF0.7803702106682481
aF0.6514864423798457
aF0.27369914933167455
aF0.5681576372953221
aF0.2972349900652763
aF0.7824121345777237
aF0.8658639727102594
aF0.4050332575641041
aF0.5502289170742395
aF0.2046094701256388
aF0.19381787761194158
aF0.6463831080922469
aF0.712421150190262
aF0.18871142340169966
aF0.4940245564699971
aF0.7447052987344879
asg210
I100
sg211
(lp286
F0.008556549001877516
aF-0.0027325619554673815
aF0.007336585047025735
aF0.001511580569154317
aF-0.0012116709591227068
aF0.00967671643968048
aF0.005043235296158003
aF0.0013181841583958384
aF-0.0031752721497494293
aF0.0004400476189500511
aF0.0020654720898702086
aF0.007573213865218862
aF-0.004744902434506534
aF0.014826026337119378
aF-0.004563261567898573
aF-0.003939297956602251
aF0.008657843672456826
aF-0.016145219838209008
aF-0.009812610243766562
aF-0.0004742262587929688
aF0.008566471638595165
aF-0.0032639326956046604
aF-0.004987937221306476
aF-0.01240247612135896
aF0.023738356559667516
aF-0.005797915252303089
aF-0.0005659265581395052
aF0.014277091971779628
aF3.7648245237543315e-05
aF-0.002497011986557413
aF0.0035921682644727356
aF0.004017165617789793
aF-0.012110379274583895
aF0.004584246848990988
aF-0.008366288944589644
aF0.0035823594416204
aF-0.004370677321255978
aF-0.008741955979224813
aF-0.015585027941339643
aF-0.0031565546804943464
aF0.009178699125904554
aF-0.012099627991544636
aF0.008112979732226827
aF-0.00784093379560415
aF-0.012310985301704108
aF-0.022439171745494615
aF0.008179766561572035
aF0.004935151433359898
aF-0.002933623845501111
aF0.0024125846198708558
aF0.0005676324447162572
aF0.013022096204907218
aF-0.00048184872912189567
aF0.006234891529980352
aF0.008609443597597131
aF-0.0028118734202647643
aF-0.003885321573120813
aF0.0058427634728670744
aF-0.01862099784750578
aF0.012650309184256203
aF-0.0004987312425993904
aF-0.0006962098148142338
aF-0.011595253615489132
aF0.0031655965860137073
aF-0.011916594347420881
aF-0.003769193811605065
aF0.019282374938370993
aF-0.003549271803875388
aF-0.0017071188971367467
aF0.014416521712959858
aF-0.005105527652784714
aF0.0021493941483670316
aF-0.012601982005750642
aF-0.005006936344231009
aF-0.007323327670552559
aF0.0018220595459626117
aF-0.010028708553699348
aF0.011547376392289692
aF0.009760848031573177
aF-0.0025087465085688577
aF0.0024909559014523225
aF-0.004191407968425657
aF0.006620763696328157
aF-0.004744035429430102
aF-0.015550450250928369
aF0.00582609662955621
aF0.0006124396360971193
aF-0.0007320432649019587
aF0.0012289497572857931
aF0.014401113094995092
aF0.010649091914627267
aF-0.005951310078435807
aF-0.002533705738719408
aF-0.009324941574068182
aF0.0028250275146325457
aF-0.0020019812198169857
aF0.015376327685641605
aF-0.0020984854808621437
aF0.003400822329454065
aF0.017088438882672797
asg213
(lp287
g11
(g15
S'\xc8\xd7\xbf77#\xcc\xbf'
p288
tp289
Rp290
ag11
(g15
S'\xbe\xd8^\x98\x9b4\xe1\xbf'
p291
tp292
Rp293
ag11
(g15
S'\xbc\xc8\xa1\x14\xf7\x96\x92\xbf'
p294
tp295
Rp296
ag11
(g15
S'\x06\xad>=-\x9d\xe8?'
p297
tp298
Rp299
ag11
(g15
S'D\x19G\xf5o\xd2\xe7\xbf'
p300
tp301
Rp302
ag11
(g15
S'\x8c\x89&\xabN\x9a\xfd\xbf'
p303
tp304
Rp305
ag11
(g15
S'v\x0b\x11\xfc1\x94\xf0\xbf'
p306
tp307
Rp308
ag11
(g15
S'\x97\xbc\xfdW\xf3\x07\xee\xbf'
p309
tp310
Rp311
ag11
(g15
S'\x00\xc8"J3\xb0\x17?'
p312
tp313
Rp314
ag11
(g15
S'\xe4\x19\xf3"\xce\x96\xb9?'
p315
tp316
Rp317
ag11
(g15
S'nl \xbb\x1b\xd4\xb6\xbf'
p318
tp319
Rp320
ag11
(g15
S'<z\x966\xf8*\xe9?'
p321
tp322
Rp323
ag11
(g15
S'\xb8K|]\x15\xcc\xc0\xbf'
p324
tp325
Rp326
ag11
(g15
S'.\xec\x1f\xdd\xbc\xc9\xfa\xbf'
p327
tp328
Rp329
ag11
(g15
S'\xda\xf9\x8a\xbe\xd4\x12\xd5\xbf'
p330
tp331
Rp332
ag11
(g15
S'o\x85\xb9\xb1\xcd\xd3\xfb?'
p333
tp334
Rp335
ag11
(g15
S'\xc3\x88W\x85\x88y\xee\xbf'
p336
tp337
Rp338
ag11
(g15
S'3@s\x9a<\xef\xe2\xbf'
p339
tp340
Rp341
ag11
(g15
S'\xd8\xb3&>+\xe0\xcf\xbf'
p342
tp343
Rp344
ag11
(g15
S'\x92\xb7:K\xd0\xc0\xd3\xbf'
p345
tp346
Rp347
ag11
(g15
S'b\x8ft]\xe1\xdc\xd0\xbf'
p348
tp349
Rp350
ag11
(g15
S'\x8e\x00N,\x01\x02\xe7\xbf'
p351
tp352
Rp353
ag11
(g15
S'\xaa4\x12T\x82\x08\xdc\xbf'
p354
tp355
Rp356
ag11
(g15
S'Aj>\xfd\xef\xa0\xf5\xbf'
p357
tp358
Rp359
ag11
(g15
S'hP\x04\x1eh{\xd3\xbf'
p360
tp361
Rp362
ag11
(g15
S'\x7fS\x8a\\T)\xef\xbf'
p363
tp364
Rp365
ag11
(g15
S'\xa9\xfc(\x83uv\x02\xc0'
p366
tp367
Rp368
ag11
(g15
S'\xaa\x1dh\xdbi\xac\xe9?'
p369
tp370
Rp371
ag11
(g15
S'\x8f \x1c\xb55`\xd6\xbf'
p372
tp373
Rp374
ag11
(g15
S'}I\x85$\xcb\xb7\xc7\xbf'
p375
tp376
Rp377
ag11
(g15
S'\x1dr\x83\xdb\xb7\x1b\xf1\xbf'
p378
tp379
Rp380
ag11
(g15
S'X}\xdd\xe4\xd4:\xe6\xbf'
p381
tp382
Rp383
ag11
(g15
S'\x95j\xcc\xf8mk\xe0\xbf'
p384
tp385
Rp386
ag11
(g15
S'\x99\xef\x11\xf9\x1e\x1cc?'
p387
tp388
Rp389
ag11
(g15
S'\xa8\xf7rm\xb3\x1d\x97?'
p390
tp391
Rp392
ag11
(g15
S'\x85\xf77P\x92\x84\x02@'
p393
tp394
Rp395
ag11
(g15
S'\r\xc5\xf2p9?\xcc?'
p396
tp397
Rp398
ag11
(g15
S'\xba\xb2a\xf5\xe1T\xec?'
p399
tp400
Rp401
ag11
(g15
S'\x89=\xc6\x90go\xf3?'
p402
tp403
Rp404
ag11
(g15
S'L\x86}?\x18 \xaf\xbf'
p405
tp406
Rp407
ag11
(g15
S'H\xdf\xd0\x81\xb0\xc7\xe1\xbf'
p408
tp409
Rp410
ag11
(g15
S'l\x98j\xe8\x15\xc2\xee?'
p411
tp412
Rp413
ag11
(g15
S'h-\xb5\xb4\xbf\x9b\xe9?'
p414
tp415
Rp416
ag11
(g15
S'\x8e^G\xdb\x1d6\xe2\xbf'
p417
tp418
Rp419
ag11
(g15
S'l\xeb\xdb\x87\x08\t\xe7\xbf'
p420
tp421
Rp422
ag11
(g15
S'.\xc1\xa2\x02\xf0\xb9\xf1?'
p423
tp424
Rp425
ag11
(g15
S'O_\x99\xa7\x99\xaa\xdc\xbf'
p426
tp427
Rp428
ag11
(g15
S'\xc8a\xec\xda8\x89\x9f\xbf'
p429
tp430
Rp431
ag11
(g15
S'\xfc\xbd[\xb5\x0f\x8c\xf9\xbf'
p432
tp433
Rp434
ag11
(g15
S'\x88\xfd\x9cf\xa0#\xad\xbf'
p435
tp436
Rp437
ag11
(g15
S'j{c\xfb\x05\xf0\xf1\xbf'
p438
tp439
Rp440
ag11
(g15
S'XY5\x8dc\x8f\xcb\xbf'
p441
tp442
Rp443
ag11
(g15
S'\x0eV\x81\xa9<\x94\xe8\xbf'
p444
tp445
Rp446
ag11
(g15
S'j\xe6\x12a\x9e\xc2\xe8?'
p447
tp448
Rp449
ag11
(g15
S'\xe1\x99\x7fI\x81\xbf\xf6?'
p450
tp451
Rp452
ag11
(g15
S'\xa8\xb9\x1a\xe8\xca\x13\xbe\xbf'
p453
tp454
Rp455
ag11
(g15
S'w2\x1b\x065J\xd6\xbf'
p456
tp457
Rp458
ag11
(g15
S'\xb4\xean{ql\xef\xbf'
p459
tp460
Rp461
ag11
(g15
S'\xb2\xea~K\xfc\xbe\x00\xc0'
p462
tp463
Rp464
ag11
(g15
S'j^KV\xae\xc0\xee?'
p465
tp466
Rp467
ag11
(g15
S'`v\x88\xb8S&\xbb?'
p468
tp469
Rp470
ag11
(g15
S';\xb6D\xe5\xf2\xe3\xf2\xbf'
p471
tp472
Rp473
ag11
(g15
S'\x03\xd1\xe7\x8e\x97\xc9\xf0\xbf'
p474
tp475
Rp476
ag11
(g15
S'K\x15\xc2\xce\xd7>\xc3?'
p477
tp478
Rp479
ag11
(g15
S'\xcbj\xda?@\xec\xa3?'
p480
tp481
Rp482
ag11
(g15
S'\xb6\xbe\xa9\xf4(\xb6\xf5?'
p483
tp484
Rp485
ag11
(g15
S'\xf3|\x8d*\xcd*\xe8?'
p486
tp487
Rp488
ag11
(g15
S'\x0f\x061!\xb2*\xe3?'
p489
tp490
Rp491
ag11
(g15
S'\xcc\xc5\xf0#\xd4\x7f\x89?'
p492
tp493
Rp494
ag11
(g15
S'\xbaN\x826\xf0%\xe7\xbf'
p495
tp496
Rp497
ag11
(g15
S'\xf2\x0b>M\x18\xea\xb3?'
p498
tp499
Rp500
ag11
(g15
S'\xf9\xe3\xed\xe0-7\xda?'
p501
tp502
Rp503
ag11
(g15
S'\xd8\xd0\xc8\xa4T\xdd\xf8\xbf'
p504
tp505
Rp506
ag11
(g15
S'\xe4\x18A\x86>\xe9\xec\xbf'
p507
tp508
Rp509
ag11
(g15
S'ta\x8c\x1867\xec\xbf'
p510
tp511
Rp512
ag11
(g15
S'\\\xc2\xb5<kC\xf6\xbf'
p513
tp514
Rp515
ag11
(g15
S'\x91\xc3w\x04\x08\xf0\xfb?'
p516
tp517
Rp518
ag11
(g15
S'\xa3\x91\xc6\x1a\x88\x82\xf7?'
p519
tp520
Rp521
ag11
(g15
S'\xed\x89\xe1\x06\x1a\xe6\xeb\xbf'
p522
tp523
Rp524
ag11
(g15
S' @\x93\xd75R\xec\xbf'
p525
tp526
Rp527
ag11
(g15
S'Xt\xd7\xf9Vi\xf4\xbf'
p528
tp529
Rp530
ag11
(g15
S'v\xcc\xa0pj\x92\xf6\xbf'
p531
tp532
Rp533
ag11
(g15
S'|r\x94\x02\x01V\xf1?'
p534
tp535
Rp536
ag11
(g15
S'\xa8\xeb\xddG\xaaU\xe8\xbf'
p537
tp538
Rp539
ag11
(g15
S'\x8a\x8bI\xf4\x02I\xf4?'
p540
tp541
Rp542
ag11
(g15
S'\xcb\xf0#4\xbf\x04\xe4?'
p543
tp544
Rp545
ag11
(g15
S'N\x86\xa1\xa6\xdb:\xef\xbf'
p546
tp547
Rp548
ag11
(g15
S'\x81"\x120\xc2\x8e\xd1?'
p549
tp550
Rp551
ag11
(g15
S'\xe7\xcc\x81O6\x89\xeb\xbf'
p552
tp553
Rp554
ag11
(g15
S'Z\x06Dk\xf9y\xf4?'
p555
tp556
Rp557
ag11
(g15
S'4\xa7R\x7f\x85\xd6\xfd?'
p558
tp559
Rp560
ag11
(g15
S'\xb76\xf1A>\x9c\xd8\xbf'
p561
tp562
Rp563
ag11
(g15
S'T\x12I\xee\xe2\xcd\xc9?'
p564
tp565
Rp566
ag11
(g15
S'\xbaER/C\xb9\xf5\xbf'
p567
tp568
Rp569
ag11
(g15
S'`\x9c6\x83f\xce\xf6\xbf'
p570
tp571
Rp572
ag11
(g15
S'\xb0*\xea\x85<M\xe3?'
p573
tp574
Rp575
ag11
(g15
S'EK&\xe7\x8d\x07\xed?'
p576
tp577
Rp578
ag11
(g15
S'7%\xd9M\xa0U\xf7\xbf'
p579
tp580
Rp581
ag11
(g15
S'\x94+\x86G\x01z\x98\xbf'
p582
tp583
Rp584
ag11
(g15
S'\xcaq\xd2\x01\x0e!\xf1?'
p585
tp586
Rp587
asg215
I1
sg216
I1
sba(iann
Layer
p588
(dp589
g6
(lp590
(lp591
F-0.26631074984614556
aF-0.09037299995051658
aF-0.02012747483295955
aF-0.029826344965970482
aF-0.3977634885585527
aF-0.3352921654856871
aF-0.3010369087808674
aF-0.164793377381588
aF0.07684035420889525
aF0.008107018015532338
aa(lp592
F0.18913337522549908
aF-0.30647973375744636
aF-0.0762721570161694
aF-0.040000164809654765
aF-0.9035953348200796
aF-0.2722930694030873
aF0.5832515660821175
aF-0.718339181663861
aF0.49440964761497125
aF-0.16816578845928393
aa(lp593
F0.37276680560001374
aF-0.023874374086861782
aF-0.5616009480260128
aF-0.48272971160485795
aF0.2344027534785669
aF0.4338690205329682
aF-0.753867974233005
aF0.09119511586353976
aF-0.5364665819831799
aF0.28090101445035953
aa(lp594
F0.3760992414961122
aF-0.7028607314275541
aF0.12588324319521896
aF-0.08954474764646234
aF-0.5268157142649691
aF0.1870679227186116
aF0.3232332119041293
aF-0.20565225492137493
aF-0.11242270012808242
aF-0.04746301359317336
aa(lp595
F-0.5034671557146057
aF0.04803375956833377
aF-0.7707779241392023
aF-0.3437345012998716
aF-0.3043970928204814
aF0.6799192827982941
aF0.716329841838915
aF-0.31357462068451625
aF0.1609861748902104
aF-0.5410375210199203
aa(lp596
F0.39908579458029364
aF-0.7057417172573883
aF-0.108368042136285
aF0.1059582006254105
aF-0.5241248782375983
aF0.34113867443275275
aF-0.4493554933669569
aF-0.3616879588081568
aF-0.83441208647126
aF0.6465007857405239
aa(lp597
F0.46300359155944004
aF-0.880471529484326
aF0.8140482094965692
aF-0.4703688899112768
aF-0.33195942011322893
aF-0.6321224171600751
aF0.5994775814028709
aF-0.3004804454622166
aF-0.13397029657859635
aF-0.2757496782325591
aa(lp598
F0.06938585116687847
aF-0.15372319184209293
aF-0.5042429668635665
aF-0.2418265814125861
aF0.528793771181735
aF-0.7205681521794302
aF0.4128865470820296
aF0.43134316270813416
aF0.24721912812532237
aF-0.705634351552236
aa(lp599
F-0.5873509317713953
aF-0.045930344205028235
aF-0.31369464417456533
aF-0.042002079944913145
aF0.006278503919569307
aF-0.1259802772663236
aF0.03603798365213032
aF-0.11932575223954545
aF0.03994897877764305
aF0.7658782436312689
aa(lp600
F0.7980361822890932
aF-0.3787266006892749
aF0.9239602720220098
aF0.18955360530164003
aF-0.5660686635027175
aF0.11800677606967717
aF-0.5581439202183509
aF0.14387712148314957
aF-0.6025363696541949
aF-0.7430721487968149
aa(lp601
F-0.4758183302535656
aF0.17348101254520124
aF-0.17975913838694058
aF-0.22916228925416254
aF0.16677668494686868
aF-0.22370244676461057
aF-0.09100459606700072
aF0.32865232655305254
aF0.156588010908512
aF-0.5661775079592061
aa(lp602
F-0.5017616676306957
aF-0.7212522485148326
aF-0.6475045122477775
aF0.0881770193237818
aF0.40386707660053967
aF0.6201499162294248
aF0.5411363515522535
aF0.09748186229263396
aF-0.40924446886741433
aF-0.6246542499226105
aa(lp603
F-0.5437737486911167
aF-0.31077938697986013
aF0.3059636232218512
aF0.49242139086786296
aF-0.4540992763739451
aF-0.37004188437276636
aF-0.7019942229113788
aF0.30206305961949587
aF0.19885801907075384
aF-0.7104422087763512
aa(lp604
F-0.21445207896007928
aF0.7761172059609915
aF0.338311142924627
aF-0.1699613727699009
aF-0.5613221970193778
aF-0.8754478651949519
aF-0.25638498454961633
aF-0.02034215862928895
aF0.12922277319581915
aF-0.5371842985963812
aa(lp605
F0.6102842121450484
aF-0.49157406247032487
aF0.1083189068968091
aF-1.0681758888958044
aF0.5428832547328074
aF-0.9755015358399457
aF0.4905863191998206
aF-0.5373116023142891
aF0.4726544531144938
aF0.16651306680180583
aa(lp606
F0.28540008540805106
aF-0.00666946419871964
aF0.19632946407302326
aF0.5908341904873313
aF-0.6852600862526108
aF-0.5497630299340089
aF0.5527622907374915
aF-0.3038896055357097
aF-0.3251478657353477
aF-1.1774425679915481
aa(lp607
F-0.6694603906026939
aF0.6158142646380217
aF-0.6159388242158069
aF-0.5032832804219142
aF0.08360175032454367
aF0.35149713940601246
aF-0.7559401738408885
aF0.6023527998066844
aF0.18527213694588693
aF-0.467211055177341
aa(lp608
F-0.411185946167245
aF-0.4929931315977211
aF0.278647474791548
aF0.20046886813016973
aF-0.6000136648147792
aF-0.5783934609147074
aF-0.10416117964252727
aF-0.13817407358401365
aF0.11532277613441212
aF0.8722469760236496
aa(lp609
F-0.3552701176292526
aF0.3309301193996919
aF-0.03418722045942714
aF-0.6782466998258487
aF0.1835508943443565
aF-0.033268175767796074
aF1.0905743542835948
aF-0.6374686456287982
aF-0.6083948573374609
aF-0.8595147847012558
aa(lp610
F-0.29464823409169294
aF0.08058123036947867
aF0.3259665169258677
aF-0.13710228008890243
aF-0.37549370850820507
aF0.06387872823112976
aF0.4396335409333154
aF-0.26943224123582804
aF-0.466814988225444
aF-0.2374083636596218
aa(lp611
F-0.2326064674907286
aF0.6150300107466689
aF0.3637306803749601
aF0.5010984330733709
aF-0.5047165124996996
aF-0.9760967641664373
aF0.10721969840569058
aF-1.028984692499752
aF0.4800897734718171
aF0.10307835578145583
aa(lp612
F0.2647874902346168
aF-0.8495672906086306
aF0.820663254987242
aF0.09269326868561246
aF-0.4603629386888659
aF-0.028655329273421324
aF-0.07840099067245504
aF-0.04532680382790351
aF-0.14949001654766383
aF-0.5372194634104503
aa(lp613
F-0.38096308857941436
aF-0.5512711544141812
aF-0.4196006480081422
aF0.40761510632834036
aF-0.3068541320290986
aF0.049625917800333805
aF-0.513160307134779
aF0.8205822640070032
aF-0.8962778660780496
aF0.6557579258099769
aa(lp614
F-0.5234267744209451
aF-0.2169497114768031
aF-0.24712350570472322
aF0.521827285096469
aF-0.19569709441378527
aF0.1491263241422627
aF-0.2221143666483034
aF0.2505174891535406
aF-0.5025168145938244
aF0.13860194296737652
aa(lp615
F-0.3612708971060423
aF0.26883082177371886
aF0.16981887178625782
aF0.08980471122476354
aF0.20318700642885204
aF-1.0284425568816282
aF-0.5265899109198053
aF0.051898839299438476
aF-0.5390455098305805
aF0.4089837706794377
aa(lp616
F0.6154900072740368
aF-1.0755942222081787
aF0.32652820105374747
aF0.00036087690793194875
aF-0.6330156315664344
aF-0.7691848822569398
aF-0.7769630165789738
aF0.12642759145328084
aF0.42179451506090304
aF0.5485779126473556
aa(lp617
F-0.19084932763781376
aF0.2715074221155482
aF-0.11362457024336996
aF0.23656351404595352
aF-0.4674595913507045
aF-0.5620690069587053
aF-0.49035286050741433
aF0.9671551112368734
aF-0.14507342876233906
aF-0.22979348485030832
aa(lp618
F0.4680853476662009
aF-0.3502568195568916
aF-0.5384423099726241
aF-0.4628271277904502
aF1.0295061987568477
aF-0.5157112512529354
aF-0.69707898864588
aF0.6995874361734769
aF-0.4979389721029729
aF0.27072656133373035
aa(lp619
F0.5579740749404174
aF-0.7048052565591837
aF0.20527346021930568
aF-1.3522741055355254
aF0.28706368225001755
aF0.22458854682659296
aF0.19267267165934024
aF-0.31775366995191456
aF0.20756156480001958
aF-0.21264584461992964
aa(lp620
F0.0427822038109655
aF-0.5882462582569817
aF0.016639802488669125
aF-0.3974543353676929
aF0.14511290994534215
aF0.011565102825697263
aF-0.9698465403200952
aF0.8383378859916512
aF-0.5954489134063936
aF-0.04417297870868302
aa(lp621
F-0.09036018093558872
aF0.4084627788430628
aF0.10169574792682995
aF-0.6323122463351525
aF0.364937136078836
aF-0.2781455734807927
aF0.5567424470903135
aF-0.5306696182357801
aF0.19276303165812378
aF-0.6470186944987153
aa(lp622
F0.2788610421000835
aF-0.4225018269250785
aF-0.7124430345111035
aF-0.1046887844443723
aF-0.6043982199183799
aF0.5115679895804899
aF0.7728901543009895
aF-0.13659143217697536
aF-0.06120004642437731
aF0.8471093320664748
aa(lp623
F-0.28194141909808523
aF0.7567672343004125
aF-0.4901933237396606
aF-0.5379095203371268
aF0.2541975814589916
aF-0.6435719543085762
aF0.05774480682497433
aF-0.35458922661627124
aF0.9528016471241235
aF0.21001103674281263
aa(lp624
F-0.8043106462329528
aF0.395953063091355
aF0.16365767523330238
aF-0.07753533761876721
aF0.08697824028159794
aF-0.5630620616491052
aF-0.6450199562401163
aF0.585638609801638
aF-0.42625277613564194
aF0.06990783368665121
aa(lp625
F-0.2917334020930094
aF0.3136001478793571
aF-0.026613999023522926
aF-0.7378193225913199
aF0.034608554270811484
aF-0.5084824049276514
aF-0.4391375754234177
aF0.019014842240521995
aF0.4697251622260684
aF0.41681798373478396
aa(lp626
F-0.3116986688987868
aF0.30352592186633015
aF0.699460268230934
aF0.7211358684624355
aF-1.02615261720025
aF-0.408688150461645
aF-0.5934336279825146
aF-0.7889668937138266
aF-0.29876901002791395
aF0.20853060487635902
aa(lp627
F-0.5940799035054731
aF0.4037464853635856
aF0.05938073007724043
aF0.35683859848695193
aF-0.8577180882745944
aF0.38953026356875764
aF-0.2669834388006808
aF-0.11945584465201248
aF0.6184675043860753
aF-0.5442912134992647
aa(lp628
F0.16804697761174892
aF0.15470217427582228
aF0.3819213448045928
aF-0.3596378232673444
aF-0.4554964616068852
aF-0.17714384530086585
aF-0.1964593530870736
aF-0.9423251993832428
aF-0.164354335598706
aF-0.06366987395438138
aa(lp629
F-0.7334208657449646
aF0.025171079171839673
aF-0.04728245484247973
aF-0.6098734819181982
aF0.41551703593993633
aF0.8210938111289874
aF-0.2503550323534165
aF0.1532162394426675
aF-0.8349832150246744
aF-0.04388531313963533
aa(lp630
F-1.0564288030850282
aF0.7368596048507863
aF0.1022492924102919
aF-0.34919141206257726
aF-0.06788498252034753
aF0.8894372826741086
aF-0.3606038464745041
aF-0.8667323026799552
aF-0.4839683165767566
aF0.5735181235243494
aa(lp631
F-0.7075092327724073
aF-0.22317101209087523
aF-0.4799334823565982
aF0.764355369099679
aF-0.7514005969841605
aF-0.13579268435809344
aF-0.3901513772165568
aF0.8771966293714146
aF-0.36231831628572564
aF-0.11633260240602085
aa(lp632
F-0.09291667057567923
aF-0.6757982702820068
aF-0.5218660784326358
aF-0.32694941415293877
aF0.3826986598517564
aF0.1382481833501679
aF0.07900560557304129
aF0.22514958989876138
aF0.06750638710142078
aF-0.05034597097532987
aa(lp633
F0.1119373521418933
aF0.6818624712739384
aF-0.38430039184500236
aF0.18690695505417945
aF0.06358292083120841
aF0.12601889636635305
aF-0.9534660108913504
aF-0.3411207781819536
aF-0.21402244243236396
aF-0.5458288338716901
aa(lp634
F-0.38800997785796343
aF-0.1733638704191114
aF-0.43187430099044943
aF0.23741027995378708
aF-0.016532036599868644
aF0.14486954534430554
aF0.1312603213355006
aF-0.2526007389200691
aF0.3695612420538135
aF-0.5087243005813844
aa(lp635
F0.5635404567542877
aF-0.3099761278171354
aF-0.15909169235946538
aF0.618732221480381
aF-1.0108039397164368
aF0.19170622672915885
aF0.09577129586283109
aF-0.7550896669643737
aF-0.7522773241651323
aF-0.03292311390813336
aa(lp636
F-0.3554688526001941
aF0.2955674093237196
aF-0.6575029362636943
aF0.10349768395128556
aF0.39553221639454494
aF-0.2009515648539763
aF-0.4743992304640781
aF0.7183869101477187
aF-0.6543776865454459
aF-0.23957295885554566
aa(lp637
F-0.40750093644048524
aF0.5146639014773543
aF0.1218893794451266
aF-0.42816084568530116
aF-0.7257061235955107
aF0.6352452549707258
aF0.3944102135739476
aF0.5174657839213248
aF-0.8634919317050357
aF-0.4582092529888741
aa(lp638
F0.3323352077333127
aF-0.47130495596819
aF0.49617197004621705
aF0.1521655413364937
aF-0.3905453262890288
aF-0.3297942989732701
aF-0.2345128492446564
aF-0.43621204336290686
aF0.08416111168804677
aF-0.2104445530610255
aa(lp639
F0.21701369462887884
aF-0.4124382712677227
aF-0.43341421884679465
aF0.31878048744198234
aF-0.34135879530372054
aF0.27537064016038043
aF-0.2839812025763118
aF0.3879923152850861
aF-0.02073397595112523
aF-0.09489361062380408
aa(lp640
F0.5158921671201768
aF-0.5375552473079276
aF-0.12045542959518384
aF-0.6621605371860014
aF0.340711187677044
aF-0.5510793219261714
aF0.6404937638790719
aF0.6962472097165162
aF-0.6275490038641204
aF-0.8310149513845625
aa(lp641
F-0.5230767871257324
aF-0.5375288701104182
aF-0.2389273306006774
aF0.1171139611522007
aF-0.4871308876562239
aF0.11981549318255225
aF0.2716496884417319
aF0.5089067827125626
aF-0.27812717521474506
aF-0.24987339680237755
aa(lp642
F0.7178960746907745
aF-0.3351151510570622
aF0.35229509879769816
aF-0.29436439094375344
aF0.08301331388842478
aF-0.2609927183485529
aF-0.13323268651332795
aF0.15870291025206898
aF-0.2592230414543315
aF-0.4393893906150124
aa(lp643
F0.5412191262072812
aF-0.8871920129822636
aF-0.2359110062958118
aF-0.7331173362150837
aF0.2371283587367007
aF0.06032386583958011
aF-0.23277390298828826
aF0.28262651041648584
aF0.2912625694503675
aF0.36344887967274164
aa(lp644
F-0.06083625423589214
aF-0.18761397561779394
aF-0.6863060089002494
aF-0.15337243936285572
aF0.16073638354516837
aF-0.16949656979822533
aF-0.4008079739783355
aF-0.06296852400185367
aF-0.24449293859293744
aF0.4947226091847242
aa(lp645
F-0.5274537482979993
aF-0.08283117520423972
aF0.0041789789356056805
aF-0.6827825202042493
aF0.03948036110212136
aF0.15271480885594527
aF0.007594135465310169
aF-0.5187012215468592
aF0.2543879809272802
aF0.023155151976687157
aa(lp646
F-0.0679152626577356
aF-0.47458851205442687
aF0.14641529128239494
aF0.2886051965708628
aF-0.4482325760776856
aF0.5597685808199937
aF-0.22739825684808623
aF-0.5846779200804973
aF0.1258055780432316
aF-0.6918935392131879
aa(lp647
F-0.4674560410584612
aF-0.15499945379181487
aF0.17619649483734007
aF0.05219752298007484
aF0.47154816284360157
aF0.021758660109054053
aF-0.1748695117628066
aF-0.13334455566334974
aF-0.320958113765953
aF-0.4409747023242549
aa(lp648
F0.18989658534985976
aF0.23001160632928197
aF0.23056886451928563
aF-0.3884986392124393
aF-0.16021424320870123
aF-0.0027401224765868106
aF-0.520532071722143
aF0.016623197762789636
aF-0.12985015065749556
aF0.1403443640666218
aa(lp649
F0.06172444418928632
aF-0.11830248749432581
aF-0.38434047806123683
aF0.7432740925220543
aF-0.03930404354193847
aF-0.6757818738222942
aF-0.1985247004189267
aF-0.5259236964279745
aF0.3087537988821092
aF-0.051119803119996345
aa(lp650
F-0.4490346179244172
aF0.681861490460461
aF-0.61343270327693
aF-0.754260888093057
aF0.7184166672315011
aF-0.5962977673998477
aF0.6890726365407301
aF-0.7233425128105132
aF-0.5530767189172094
aF0.31156472196430807
aa(lp651
F-0.6188726961034284
aF-0.731696284478997
aF-0.8142700845969085
aF0.009268214315333744
aF-0.11329324600927893
aF1.111597913475169
aF0.818274298639107
aF-0.4280565431615605
aF0.20806517584824968
aF-0.457845892483672
aa(lp652
F0.4102616532921708
aF-0.7533467067123298
aF-0.5156530053550531
aF0.26491824456392915
aF0.275337404191629
aF0.5462063314144766
aF-0.011647527563882014
aF0.013935271771972256
aF-0.6810259324884013
aF-1.1387964000060167
aa(lp653
F0.4027671957976656
aF-0.47171717096925375
aF-0.5905657648216136
aF-0.17147527305685623
aF0.7690140132474524
aF0.38351259248440395
aF-0.06706676537083507
aF-0.4923693382427303
aF-0.5311998402442965
aF-0.4681064097022965
aa(lp654
F-0.714272964848816
aF0.08762841598135675
aF0.03166340074389097
aF0.8633949716775438
aF-0.18003761104705884
aF-0.18890941090398264
aF-0.1967600910172366
aF-0.17795166271787555
aF-0.5784546421231829
aF0.43737645331175695
aa(lp655
F-0.749234421563466
aF0.1908502157741315
aF-1.0186111234098594
aF0.4079368242597177
aF-0.022846761231340867
aF-0.13620169856604872
aF-0.5152942639689186
aF0.18814437486480415
aF0.36495472588738814
aF0.6905971689622729
aa(lp656
F-0.3638150147790224
aF0.341346352791683
aF0.6163815629375022
aF-0.6640570848970413
aF-0.08059902659473321
aF0.05326150800413782
aF-0.18295713331509084
aF0.11504793577179036
aF-0.548217057714174
aF-0.253142499629346
aa(lp657
F-0.5051501843402922
aF0.008952662203340706
aF0.2297893219262238
aF-0.6614544894663845
aF0.16882274887233123
aF0.8852576038085815
aF-0.35334296461587045
aF0.6266739573280343
aF-0.543099430757578
aF-0.47626760816713026
aa(lp658
F0.22780897736914152
aF-0.8651834687785157
aF0.3115320650644025
aF0.49539979764827474
aF-0.8657100274331889
aF0.07892623017984175
aF0.02256706707370653
aF-0.20086076087841478
aF0.6151640016120287
aF-0.019186371861255467
aa(lp659
F0.06734422307047333
aF-0.7583245200973214
aF0.25691420308366736
aF0.1407839464805349
aF0.029125465721864058
aF0.2930564476990135
aF-0.46129700540007257
aF0.3754101853459816
aF-1.0777344902163706
aF-0.8080299877251657
aa(lp660
F-0.6326087963717257
aF0.30512408568913735
aF0.693321791948504
aF0.571105234489386
aF-0.889968236816335
aF-1.1361952046560637
aF0.6872636143750003
aF0.2263245967921697
aF-0.08384045822105524
aF-0.8337799497627254
aa(lp661
F0.4793712540096272
aF-0.9549224684766253
aF-0.3124915444061168
aF0.26740184950377704
aF0.40805690363739866
aF-0.46005941034133196
aF0.1401803648048771
aF-0.02080014302757588
aF0.06650589558821306
aF-1.0965844363577233
aa(lp662
F-1.0369264361417976
aF-0.13506818504966342
aF0.32599156941732005
aF0.2825268567758597
aF-0.12946808770348475
aF-0.6278463167168353
aF-0.02009679361108358
aF0.07166966679708718
aF-0.42888060989896093
aF-0.27565325514448014
aa(lp663
F-1.0007158410339554
aF-0.019313455985338353
aF-1.3025341060210653
aF0.48041768716048805
aF0.6174253624387253
aF-0.25105469272304537
aF0.4612296597960048
aF0.41361960739571474
aF0.2183554641989069
aF-0.2623140844867506
aa(lp664
F0.08125190946723343
aF0.491760976010017
aF0.46716665051976347
aF-0.48150171072137926
aF0.7052904808349748
aF-1.1452409516491533
aF-0.14811635393249137
aF-0.061496978930196206
aF-0.36542690707002584
aF-0.8333832638048057
aa(lp665
F0.24256192286550843
aF-0.05837224247661525
aF-0.8375357862775641
aF-0.492901436498558
aF0.700177934729798
aF0.552916163337019
aF0.16556018325159794
aF-0.8376482518272087
aF-0.578625355467339
aF-0.21549048047272043
aa(lp666
F0.14374216296020967
aF0.1694683520437846
aF-0.6054856594341451
aF0.3543793367714328
aF0.13178700133599497
aF-0.5342291365936909
aF-0.7826508468660172
aF0.19898924784471486
aF-0.32966994723891363
aF0.16057548692981605
aa(lp667
F0.016616798739715673
aF0.4132440286467525
aF-0.4258158132733403
aF-0.38693950751904826
aF-0.41813925388420997
aF-0.6910063931016517
aF0.4787621866590086
aF-0.593796900832441
aF0.5469459540308885
aF0.8183481889113378
aa(lp668
F-0.8708267733220668
aF0.9434249891156332
aF0.59348080421418
aF-0.08959337085392256
aF-0.2891206057199445
aF0.5333586614262594
aF0.008172304020098104
aF-0.9823777230075954
aF0.04828175181773214
aF-0.9674536342189181
aa(lp669
F-0.20500124849838072
aF0.1073523591934492
aF0.2853784128362435
aF-0.8890746119068719
aF0.3523073868651611
aF0.10625482808662094
aF0.08692610510555861
aF-0.13947559650606345
aF0.9288569483214183
aF-0.47972852899718993
aa(lp670
F-0.12799085066042998
aF-0.23384649822706358
aF-0.3065707461477644
aF-0.40926438745119703
aF0.1039060174684348
aF-0.5535885507838568
aF0.33981132477924014
aF-0.42831460948722094
aF0.4466593406831297
aF-0.07366991469520318
aa(lp671
F-0.29549540581999256
aF-0.3135435059455254
aF-0.48911142441562494
aF0.42908310776931163
aF-0.06659133769121876
aF-0.13920761787871969
aF0.21843975408106553
aF0.08253489581261908
aF-0.3649386118573968
aF-0.2646298974059981
aa(lp672
F0.566282839103675
aF-0.7788175432145923
aF-0.19030382951362015
aF-0.1089329101247039
aF-0.09255639303256048
aF0.022033076661168327
aF0.4347462012386102
aF-0.35496063423564167
aF-0.4467560928180683
aF-0.2722905440434116
aa(lp673
F0.45784949557524873
aF-0.21702556585087288
aF-0.48024776155792587
aF0.22488760379979564
aF-0.23291831518251097
aF-0.3084566394164771
aF-0.7591746912238646
aF-0.5959316949565308
aF-0.5649432288860387
aF0.5984324993792877
aa(lp674
F-0.6908677791399375
aF-0.33901848641129223
aF0.09620825625107339
aF1.0651091337988394
aF-0.2005317646096525
aF0.24863398970688147
aF-0.004678439485677062
aF-0.3592259047741913
aF0.21707153745044266
aF-0.7039609589415239
aa(lp675
F0.5975365245010097
aF-0.15619053769268118
aF0.4985455465447947
aF-0.8255911041817349
aF0.05269824197376405
aF-0.11216732333680687
aF-0.265838763784168
aF0.03586899336246499
aF-0.6198054027233942
aF-0.011935209414433644
aa(lp676
F-0.47875454218951563
aF0.3857227852113972
aF0.007950162987544999
aF0.2559186671679577
aF0.06514501479736108
aF0.6840734329272882
aF-0.40770558130067086
aF-0.6601750750782145
aF-0.6445080258845853
aF-0.7845362532569478
aa(lp677
F0.3466407864484807
aF0.02847150157483118
aF-1.3275363571313192
aF0.13163097607392168
aF-0.44643262725025296
aF0.375470135939913
aF0.026397659275024712
aF-0.7527126520864383
aF0.3992883164783004
aF0.5383716733546716
aa(lp678
F-0.19459222888166028
aF-0.5371646038406923
aF0.8246615512657433
aF-0.5181636378143767
aF0.02882787280766804
aF-0.2885309931051744
aF0.20330609637455652
aF0.18903526984138286
aF-0.40973526045739944
aF-0.22060464012590802
aa(lp679
F0.2460108395059831
aF0.16005752274091667
aF-0.7396494328447593
aF0.392812426463472
aF-0.43451207755430177
aF0.3491445110137575
aF-0.21777763032497474
aF-0.6752948088744959
aF0.0939455414507813
aF0.6784580788137875
aa(lp680
F-0.21353647357013647
aF-0.3731136744973131
aF-0.4213116337196906
aF-0.4701674706417848
aF-0.10413447239524126
aF0.09080427681584984
aF-0.12103047284015388
aF0.057279032401872855
aF-0.25541808954971684
aF0.4621358267356236
aa(lp681
F-0.6500990983153148
aF-0.25276704644942083
aF0.05565689329291659
aF-0.09198945597913043
aF0.11944734842506596
aF-0.14900834876496863
aF-0.8488857492012646
aF0.2798544983874993
aF0.6251378214211402
aF-0.06275667931002074
aa(lp682
F-0.05508409984038832
aF0.05699871347449877
aF0.7790195259559325
aF-0.2908896181962696
aF-1.1828885564803218
aF0.14397689597444904
aF-0.9543033398851026
aF-0.0923713522855729
aF0.6336429587827858
aF0.4865026712533452
aa(lp683
F-0.06081442912971353
aF-0.1428776244314207
aF0.0828434200542641
aF-0.23918672545295921
aF0.5139020395239693
aF-0.06053657358036238
aF-0.6250645254262835
aF0.09806348903102477
aF-0.6393016476734051
aF0.019137819502649096
aa(lp684
F-0.5674294408426118
aF0.48907911835476847
aF-0.5240360050162093
aF-0.09963240504015093
aF0.35160388398960146
aF-0.37486681247868264
aF-0.9329849635843519
aF-0.18125584912446555
aF0.17250254654424949
aF0.3195392944288496
aa(lp685
F0.10407980153919576
aF0.1380080134000488
aF0.4171206711761202
aF-0.42513146628020604
aF0.09299755607700712
aF-0.7372594711763312
aF-0.38626271325083106
aF-0.36932186405832057
aF-0.47514852702723304
aF0.2826820629167442
aa(lp686
F0.028936531623886527
aF-0.3644194302043698
aF0.15463299673037997
aF-0.9022113247846265
aF0.7413323201922538
aF-0.7682993747610143
aF-0.2898359195897729
aF0.011989531983675653
aF-0.20220002554828995
aF-0.03231201590221824
aa(lp687
F-0.6227150752832846
aF-0.03846794726591715
aF0.5257364437328703
aF-0.3199375978538061
aF-0.00219712688873836
aF0.023429864855508978
aF-0.06786045747383498
aF-0.20190386180868086
aF-0.16250966596731767
aF-0.5754993451058044
aa(lp688
F0.32059079202237317
aF-0.24782038263469602
aF-0.5450255428587909
aF-0.047790843104702115
aF-0.7687895940909627
aF0.5507420562933548
aF-0.20481113380222662
aF-0.17855348214525657
aF0.6622362822197321
aF0.5501091786117646
aa(lp689
F0.5978484567313467
aF0.05065422040513098
aF-0.5404324219224835
aF-0.35043449158512835
aF-0.11954942622685018
aF0.20047920205364037
aF-0.4886031646693181
aF-0.27428809085461114
aF-0.26126842349497037
aF0.7610091105890376
aa(lp690
F0.3726923421033637
aF0.39938456787882404
aF-0.9665397962255771
aF-1.1071014893465252
aF0.5722263356823185
aF0.07909751534551465
aF0.09816103507425525
aF-0.49557449918111496
aF0.4647072067108815
aF-0.02872494946076501
aa(lp691
F-0.2484546892134381
aF-0.9702362222251812
aF-0.40713813857809567
aF0.6324983469206097
aF-0.7964289166480623
aF0.44148513215379454
aF-0.2777757956730342
aF1.079035114306214
aF0.21496371001074732
aF0.5005198550217224
aasg9
(lp692
I1
aF0.00012126941463001269
aF0.020673406699672242
aF0.027714873049991033
aF0.04922765061899105
aF0.0006606813577433221
aF0.8925082432467728
aF0.0013405253738741592
aF0.01649792927125224
aF0.07578234617456964
aF0.00044352997423439163
asg210
I10
sg211
(lp693
F-4.796178290990103e-08
aF-0.05782561550566588
aF-0.001122173234086573
aF-0.00470889690704983
aF-8.65977748284662e-07
aF-4.886309277700394e-08
aF-0.005859901509782509
aF-1.4639778197386093e-06
aF0.06884880777433683
aF-4.780728244942227e-06
asg213
(lp694
F-9.017374643536368
aF-3.8580170119382666
aF-3.5576798996191736
aF-2.9608191835541167
aF-7.3215779955401405
aF2.1166215864797553
aF-6.613352247121555
aF-4.087884868976956
aF-2.501082234539581
aF-7.7203015444888194
asg215
I2
sg216
I1
sbasS'learn_rate'
p695
F0.1
sb.